(dp0
(I73730
I1082379
tp1
(lp2
I3676
aI10253
as(I279045
I67144223
tp3
(lp4
I5080
aI10311
as(I135427
I134253349
tp5
(lp6
I5166
aI10101
as(I2106637
I67119647
tp7
(lp8
I5453
aI10055
as(I73730
I268442665
tp9
(lp10
I5730
aI10310
as(I16787479
I268442665
tp11
(lp12
I6269
aI10038
as(I533255
I67119647
tp13
(lp14
I5318
aI10196
as(I1057803
I8398611
tp15
(lp16
I4898
aI10343
as(I16783383
I134228773
tp17
(lp18
I6010
aI10043
as(I16783383
I268471337
tp19
(lp20
I6221
aI9938
as(I81922
I164099
tp21
(lp22
I3458
aI10443
as(I266757
I67127839
tp23
(lp24
I5101
aI10345
as(I135427
I67119647
tp25
(lp26
I4929
aI10298
as(I164099
I2131213
tp27
(lp28
I4267
aI10554
as(I541447
I1057803
tp29
(lp30
I4221
aI10427
as(I33573149
I268446761
tp31
(lp32
I6396
aI10012
as(I295429
I2131213
tp33
(lp34
I4551
aI10534
as(I98306
I16783383
tp35
(lp36
I4319
aI10202
as(I266757
I268446761
tp37
(lp38
I5773
aI10251
as(I69634
I268471337
tp39
(lp40
I5519
aI10007
as(I295429
I1065995
tp41
(lp42
I3956
aI10389
as(I139523
I8423187
tp43
(lp44
I4138
aI10321
as(I135427
I16783383
tp45
(lp46
I4752
aI10310
as(I67115551
I268471337
tp47
(lp48
I6404
aI9919
as(I69634
I279045
tp49
(lp50
I3584
aI10432
as(I147715
I268471337
tp51
(lp52
I5718
aI10342
as(I8398611
I268446761
tp53
(lp54
I6379
aI10219
as(I69634
I541447
tp55
(lp56
I3612
aI10465
as(I147715
I295429
tp57
(lp58
I3712
aI10404
as(I4199953
I16787479
tp59
(lp60
I5025
aI10152
as(I279045
I8406803
tp61
(lp62
I4645
aI10421
as(I1057803
I33560861
tp63
(lp64
I4868
aI10195
as(I16812055
I134253349
tp65
(lp66
I6204
aI10105
as(I270853
I33560861
tp67
(lp68
I4868
aI10317
as(I8394515
I8398611
tp69
(lp70
I7121
aI9907
as(I2102541
I67119647
tp71
(lp72
I5216
aI9984
as(I1065995
I2106637
tp73
(lp74
I4368
aI10260
as(I81922
I98306
tp75
(lp76
I5087
aI10032
as(I1065995
I134236965
tp77
(lp78
I5653
aI10065
as(I69634
I16795671
tp79
(lp80
I4346
aI10385
as(I2102541
I16783383
tp81
(lp82
I5176
aI10137
as(I73730
I266757
tp83
(lp84
I3648
aI10448
as(I4204049
I8423187
tp85
(lp86
I4934
aI10401
as(I164099
I33589533
tp87
(lp88
I4881
aI10130
as(I98306
I2102541
tp89
(lp90
I3710
aI10533
as(I16787479
I268454953
tp91
(lp92
I6353
aI10096
as(I67144223
I268454953
tp93
(lp94
I6502
aI10147
as(I266757
I557831
tp95
(lp96
I4041
aI10383
as(I266757
I67144223
tp97
(lp98
I5090
aI10334
as(I533255
I134236965
tp99
(lp100
I5453
aI10213
as(I16787479
I33589533
tp101
(lp102
I5597
aI10039
as(I164099
I1053707
tp103
(lp104
I3797
aI10220
as(I8423187
I33573149
tp105
(lp106
I5442
aI10184
as(I270853
I4199953
tp107
(lp108
I4147
aI10413
as(I1053707
I268471337
tp109
(lp110
I5840
aI10154
as(I69634
I67127839
tp111
(lp112
I4855
aI10231
as(I81922
I8394515
tp113
(lp114
I4056
aI10337
as(I4228625
I67127839
tp115
(lp116
I5488
aI10171
as(I98306
I557831
tp117
(lp118
I4029
aI10354
as(I1053707
I1082379
tp119
(lp120
I6328
aI10017
as(I8406803
I134236965
tp121
(lp122
I6001
aI10097
as(I270853
I4212241
tp123
(lp124
I4242
aI10601
as(I67127839
I67144223
tp125
(lp126
I7842
aI9838
as(I81922
I1053707
tp127
(lp128
I3679
aI10267
as(I8398611
I16795671
tp129
(lp130
I5239
aI10153
as(I541447
I2114829
tp131
(lp132
I4617
aI10437
as(I147715
I33564957
tp133
(lp134
I4701
aI10397
as(I16812055
I268446761
tp135
(lp136
I6226
aI9992
as(I135427
I164099
tp137
(lp138
I5363
aI10015
as(I533255
I33589533
tp139
(lp140
I4749
aI10124
as(I266757
I279045
tp141
(lp142
I5597
aI9801
as(I33573149
I134253349
tp143
(lp144
I6099
aI10112
as(I8394515
I16795671
tp145
(lp146
I5157
aI10054
as(I8423187
I134253349
tp147
(lp148
I6069
aI10140
as(I81922
I33573149
tp149
(lp150
I4856
aI10251
as(I4199953
I8394515
tp151
(lp152
I5134
aI10220
as(I33560861
I67127839
tp153
(lp154
I5646
aI9818
as(I147715
I2102541
tp155
(lp156
I3845
aI10328
as(I533255
I1057803
tp157
(lp158
I4417
aI10364
as(I73730
I147715
tp159
(lp160
I3458
aI10415
as(I69634
I266757
tp161
(lp162
I3904
aI10469
as(I541447
I1065995
tp163
(lp164
I4566
aI10404
as(I2106637
I33560861
tp165
(lp166
I5047
aI10076
as(I2114829
I134236965
tp167
(lp168
I5768
aI10106
as(I4212241
I33589533
tp169
(lp170
I5302
aI10228
as(I557831
I1057803
tp171
(lp172
I4169
aI10333
as(I1053707
I67115551
tp173
(lp174
I5438
aI10127
as(I147715
I8394515
tp175
(lp176
I4030
aI10078
as(I33564957
I67119647
tp177
(lp178
I6020
aI9992
as(I270853
I33589533
tp179
(lp180
I4702
aI10230
as(I147715
I16783383
tp181
(lp182
I4474
aI10442
as(I1053707
I8398611
tp183
(lp184
I4643
aI10317
as(I2102541
I2131213
tp185
(lp186
I6528
aI9836
as(I73730
I295429
tp187
(lp188
I3609
aI10482
as(I557831
I8423187
tp189
(lp190
I4709
aI10217
as(I529159
I1065995
tp191
(lp192
I4301
aI10457
as(I139523
I67127839
tp193
(lp194
I4876
aI10149
as(I266757
I4204049
tp195
(lp196
I4019
aI10252
as(I81922
I16812055
tp197
(lp198
I4377
aI10294
as(I16783383
I134253349
tp199
(lp200
I5916
aI9955
as(I4228625
I268442665
tp201
(lp202
I6269
aI10411
as(I2106637
I16783383
tp203
(lp204
I4927
aI10175
as(I16795671
I33560861
tp205
(lp206
I5613
aI10177
as(I4199953
I134253349
tp207
(lp208
I5694
aI10122
as(I8406803
I16812055
tp209
(lp210
I5247
aI10188
as(I1065995
I2114829
tp211
(lp212
I4731
aI10433
as(I1053707
I134253349
tp213
(lp214
I5540
aI10216
as(I4204049
I33564957
tp215
(lp216
I5492
aI10178
as(I1057803
I268442665
tp217
(lp218
I5874
aI10303
as(I2102541
I134228773
tp219
(lp220
I5611
aI10114
as(I266757
I268471337
tp221
(lp222
I5768
aI10243
as(I2131213
I8406803
tp223
(lp224
I4782
aI10134
as(I279045
I134253349
tp225
(lp226
I5244
aI10060
as(I541447
I2106637
tp227
(lp228
I4168
aI10361
as(I8406803
I134224677
tp229
(lp230
I5815
aI10048
as(I295429
I533255
tp231
(lp232
I3981
aI10370
as(I270853
I67127839
tp233
(lp234
I5047
aI10192
as(I2106637
I268454953
tp235
(lp236
I6116
aI10317
as(I67119647
I134236965
tp237
(lp238
I6121
aI10022
as(I147715
I4199953
tp239
(lp240
I4009
aI10384
as(I98306
I1082379
tp241
(lp242
I4023
aI10632
as(I8406803
I8423187
tp243
(lp244
I7199
aI9963
as(I147715
I1082379
tp245
(lp246
I3944
aI10485
as(I33560861
I268454953
tp247
(lp248
I6348
aI10038
as(I295429
I4204049
tp249
(lp250
I4147
aI10313
as(I270853
I1053707
tp251
(lp252
I3971
aI10402
as(I533255
I134224677
tp253
(lp254
I5410
aI10175
as(I533255
I8398611
tp255
(lp256
I4707
aI10257
as(I529159
I1053707
tp257
(lp258
I4544
aI10300
as(I4212241
I16795671
tp259
(lp260
I5412
aI10161
as(I98306
I268446761
tp261
(lp262
I5703
aI10285
as(I147715
I4228625
tp263
(lp264
I4135
aI10472
as(I533255
I268442665
tp265
(lp266
I5988
aI10297
as(I147715
I4212241
tp267
(lp268
I4200
aI10169
as(I164099
I266757
tp269
(lp270
I3720
aI10302
as(I135427
I33564957
tp271
(lp272
I4708
aI10362
as(I135427
I16812055
tp273
(lp274
I4332
aI10349
as(I164099
I4204049
tp275
(lp276
I3949
aI10442
as(I1065995
I8398611
tp277
(lp278
I4402
aI10043
as(I2106637
I134253349
tp279
(lp280
I5630
aI10167
as(I8398611
I134228773
tp281
(lp282
I6012
aI10093
as(I81922
I139523
tp283
(lp284
I3431
aI10363
as(I533255
I16795671
tp285
(lp286
I4556
aI10177
as(I69634
I33589533
tp287
(lp288
I4636
aI10350
as(I33564957
I67144223
tp289
(lp290
I5925
aI10090
as(I67127839
I268446761
tp291
(lp292
I6477
aI10055
as(I1065995
I67119647
tp293
(lp294
I5257
aI10336
as(I266757
I134224677
tp295
(lp296
I5632
aI10289
as(I33589533
I268471337
tp297
(lp298
I6503
aI9996
as(I2102541
I33560861
tp299
(lp300
I5318
aI10220
as(I270853
I268442665
tp301
(lp302
I5689
aI10142
as(I2131213
I8394515
tp303
(lp304
I4562
aI9937
as(I73730
I2102541
tp305
(lp306
I3660
aI10282
as(I135427
I268471337
tp307
(lp308
I5802
aI10286
as(I69634
I4228625
tp309
(lp310
I3883
aI10126
as(I135427
I134236965
tp311
(lp312
I5257
aI10221
as(I81922
I266757
tp313
(lp314
I3621
aI10351
as(I8398611
I268454953
tp315
(lp316
I6081
aI10030
as(I164099
I67115551
tp317
(lp318
I4931
aI10205
as(I147715
I270853
tp319
(lp320
I3812
aI10425
as(I8398611
I67127839
tp321
(lp322
I5574
aI10113
as(I139523
I4228625
tp323
(lp324
I3909
aI10320
as(I16787479
I134236965
tp325
(lp326
I5977
aI10092
as(I4212241
I268471337
tp327
(lp328
I6073
aI10154
as(I147715
I134224677
tp329
(lp330
I5236
aI10310
as(I1053707
I16783383
tp331
(lp332
I5103
aI10393
as(I2102541
I67127839
tp333
(lp334
I5253
aI10209
as(I1082379
I2114829
tp335
(lp336
I4360
aI10286
as(I4228625
I16812055
tp337
(lp338
I5289
aI10137
as(I1057803
I134236965
tp339
(lp340
I5437
aI10133
as(I529159
I557831
tp341
(lp342
I5983
aI9975
as(I4199953
I33573149
tp343
(lp344
I5248
aI10073
as(I8398611
I268442665
tp345
(lp346
I6156
aI10126
as(I1057803
I268454953
tp347
(lp348
I5737
aI9900
as(I2106637
I134228773
tp349
(lp350
I5820
aI10334
as(I2131213
I16812055
tp351
(lp352
I5184
aI10170
as(I266757
I134236965
tp353
(lp354
I5400
aI10447
as(I1053707
I8394515
tp355
(lp356
I4864
aI10305
as(I529159
I2106637
tp357
(lp358
I4221
aI10271
as(I73730
I529159
tp359
(lp360
I3602
aI10407
as(I33573149
I33589533
tp361
(lp362
I7627
aI9954
as(I8406803
I67119647
tp363
(lp364
I5635
aI10264
as(I2131213
I268442665
tp365
(lp366
I5879
aI10027
as(I541447
I134253349
tp367
(lp368
I5415
aI10279
as(I16795671
I33573149
tp369
(lp370
I5874
aI10214
as(I16787479
I134224677
tp371
(lp372
I5826
aI10028
as(I8398611
I33589533
tp373
(lp374
I5227
aI9996
as(I529159
I67119647
tp375
(lp376
I5174
aI10401
as(I529159
I2131213
tp377
(lp378
I4412
aI10363
as(I73730
I98306
tp379
(lp380
I5124
aI10219
as(I279045
I33589533
tp381
(lp382
I4779
aI10177
as(I4212241
I16787479
tp383
(lp384
I5058
aI10176
as(I4212241
I67119647
tp385
(lp386
I5433
aI10013
as(I541447
I67127839
tp387
(lp388
I5413
aI10215
as(I529159
I8406803
tp389
(lp390
I4365
aI10219
as(I67127839
I268454953
tp391
(lp392
I6590
aI10022
as(I4204049
I16783383
tp393
(lp394
I5067
aI10284
as(I4212241
I33573149
tp395
(lp396
I5466
aI10113
as(I1082379
I2106637
tp397
(lp398
I4445
aI10417
as(I134224677
I268442665
tp399
(lp400
I6581
aI9823
as(I557831
I268446761
tp401
(lp402
I6029
aI10351
as(I147715
I33573149
tp403
(lp404
I4912
aI10161
as(I16812055
I268454953
tp405
(lp406
I6421
aI10237
as(I16787479
I67119647
tp407
(lp408
I5996
aI10025
as(I1082379
I8394515
tp409
(lp410
I4588
aI10216
as(I529159
I533255
tp411
(lp412
I5999
aI10015
as(I33573149
I134228773
tp413
(lp414
I6137
aI10105
as(I8394515
I16787479
tp415
(lp416
I5281
aI10231
as(I69634
I139523
tp417
(lp418
I3469
aI10477
as(I557831
I16783383
tp419
(lp420
I4572
aI10212
as(I98306
I33564957
tp421
(lp422
I4519
aI10247
as(I270853
I1057803
tp423
(lp424
I4312
aI10248
as(I2131213
I4199953
tp425
(lp426
I4685
aI10200
as(I2131213
I268471337
tp427
(lp428
I6146
aI10036
as(I135427
I4204049
tp429
(lp430
I3983
aI10485
as(I98306
I135427
tp431
(lp432
I3483
aI10334
as(I4204049
I268454953
tp433
(lp434
I6076
aI10154
as(I164099
I4199953
tp435
(lp436
I3843
aI10191
as(I279045
I1065995
tp437
(lp438
I4328
aI10298
as(I279045
I33573149
tp439
(lp440
I5017
aI10199
as(I270853
I67144223
tp441
(lp442
I5068
aI10321
as(I135427
I134224677
tp443
(lp444
I5568
aI10285
as(I98306
I8423187
tp445
(lp446
I4419
aI10263
as(I134253349
I268454953
tp447
(lp448
I6566
aI10030
as(I541447
I1053707
tp449
(lp450
I4233
aI10363
as(I164099
I67127839
tp451
(lp452
I5031
aI10255
as(I135427
I270853
tp453
(lp454
I3748
aI10392
as(I67115551
I268446761
tp455
(lp456
I6434
aI9997
as(I81922
I16787479
tp457
(lp458
I4348
aI10297
as(I2106637
I4228625
tp459
(lp460
I4661
aI10257
as(I2106637
I8423187
tp461
(lp462
I4841
aI10332
as(I266757
I8394515
tp463
(lp464
I4631
aI10411
as(I1065995
I16783383
tp465
(lp466
I4666
aI10148
as(I1057803
I16812055
tp467
(lp468
I4707
aI10276
as(I2106637
I67144223
tp469
(lp470
I5248
aI10199
as(I541447
I268446761
tp471
(lp472
I5859
aI10305
as(I1053707
I4228625
tp473
(lp474
I4500
aI10364
as(I73730
I164099
tp475
(lp476
I3538
aI10437
as(I1053707
I2114829
tp477
(lp478
I4347
aI10139
as(I98306
I67127839
tp479
(lp480
I4799
aI10142
as(I98306
I2106637
tp481
(lp482
I3621
aI10472
as(I1053707
I134228773
tp483
(lp484
I5579
aI10205
as(I4199953
I33560861
tp485
(lp486
I5416
aI10058
as(I1053707
I268446761
tp487
(lp488
I5742
aI10102
as(I2102541
I134236965
tp489
(lp490
I5579
aI10088
as(I266757
I16812055
tp491
(lp492
I4620
aI10542
as(I295429
I134224677
tp493
(lp494
I5146
aI9954
as(I557831
I2131213
tp495
(lp496
I4630
aI10653
as(I4204049
I134224677
tp497
(lp498
I5770
aI10224
as(I73730
I16795671
tp499
(lp500
I4309
aI10207
as(I164099
I295429
tp501
(lp502
I4107
aI10217
as(I295429
I67127839
tp503
(lp504
I4989
aI10339
as(I2102541
I67115551
tp505
(lp506
I5507
aI10148
as(I164099
I279045
tp507
(lp508
I3686
aI10236
as(I8398611
I67115551
tp509
(lp510
I5597
aI10047
as(I134228773
I134236965
tp511
(lp512
I8093
aI9868
as(I2114829
I8394515
tp513
(lp514
I4852
aI10351
as(I147715
I1057803
tp515
(lp516
I3801
aI10323
as(I2106637
I4204049
tp517
(lp518
I4864
aI10307
as(I295429
I4212241
tp519
(lp520
I4093
aI10253
as(I279045
I533255
tp521
(lp522
I4019
aI10467
as(I2114829
I8406803
tp523
(lp524
I5039
aI10205
as(I268442665
I268471337
tp525
(lp526
I8407
aI9911
as(I73730
I8406803
tp527
(lp528
I4055
aI10298
as(I2131213
I67144223
tp529
(lp530
I5571
aI10184
as(I533255
I8423187
tp531
(lp532
I4371
aI10335
as(I139523
I33560861
tp533
(lp534
I4594
aI10084
as(I4228625
I16787479
tp535
(lp536
I5203
aI10433
as(I73730
I268446761
tp537
(lp538
I5701
aI10006
as(I147715
I4204049
tp539
(lp540
I4036
aI10500
as(I2114829
I4228625
tp541
(lp542
I4702
aI10194
as(I73730
I67144223
tp543
(lp544
I4890
aI10285
as(I69634
I33564957
tp545
(lp546
I4579
aI10383
as(I73730
I2114829
tp547
(lp548
I3739
aI10555
as(I8394515
I8423187
tp549
(lp550
I7119
aI9980
as(I135427
I33589533
tp551
(lp552
I4612
aI10299
as(I1065995
I8423187
tp553
(lp554
I4621
aI10229
as(I1082379
I4212241
tp555
(lp556
I4551
aI10474
as(I98306
I164099
tp557
(lp558
I3791
aI10179
as(I541447
I16812055
tp559
(lp560
I4413
aI10109
as(I98306
I134236965
tp561
(lp562
I5117
aI10162
as(I139523
I2114829
tp563
(lp564
I4001
aI10331
as(I1082379
I67127839
tp565
(lp566
I5196
aI10140
as(I2114829
I134228773
tp567
(lp568
I5746
aI10334
as(I33589533
I268446761
tp569
(lp570
I6482
aI10234
as(I279045
I16787479
tp571
(lp572
I4588
aI10392
as(I4199953
I4228625
tp573
(lp574
I6867
aI9935
as(I16787479
I67144223
tp575
(lp576
I5628
aI10028
as(I2114829
I33564957
tp577
(lp578
I4985
aI10210
as(I135427
I67144223
tp579
(lp580
I4883
aI10220
as(I8394515
I33589533
tp581
(lp582
I5421
aI10206
as(I135427
I67127839
tp583
(lp584
I4966
aI10258
as(I33589533
I134236965
tp585
(lp586
I6005
aI10060
as(I8406803
I67144223
tp587
(lp588
I5530
aI10089
as(I557831
I33560861
tp589
(lp590
I4746
aI10037
as(I8406803
I268471337
tp591
(lp592
I5929
aI9738
as(I81922
I4199953
tp593
(lp594
I3881
aI10406
as(I147715
I279045
tp595
(lp596
I4143
aI10371
as(I8394515
I67115551
tp597
(lp598
I5733
aI10138
as(I139523
I1065995
tp599
(lp600
I3835
aI10288
as(I69634
I16787479
tp601
(lp602
I4291
aI10218
as(I16812055
I134236965
tp603
(lp604
I6011
aI9986
as(I139523
I8394515
tp605
(lp606
I4196
aI10369
as(I4212241
I268446761
tp607
(lp608
I5946
aI10104
as(I2131213
I268454953
tp609
(lp610
I6012
aI10178
as(I2106637
I2114829
tp611
(lp612
I6421
aI9708
as(I2102541
I4228625
tp613
(lp614
I4652
aI10166
as(I266757
I1053707
tp615
(lp616
I4271
aI10318
as(I67127839
I134253349
tp617
(lp618
I6141
aI10002
as(I2106637
I16795671
tp619
(lp620
I5063
aI10429
as(I164099
I529159
tp621
(lp622
I3896
aI10573
as(I533255
I4199953
tp623
(lp624
I4408
aI10478
as(I67144223
I134228773
tp625
(lp626
I6012
aI9917
as(I4228625
I134236965
tp627
(lp628
I5592
aI9958
as(I4204049
I8406803
tp629
(lp630
I4803
aI10223
as(I295429
I16787479
tp631
(lp632
I4503
aI10287
as(I164099
I67144223
tp633
(lp634
I5161
aI10127
as(I1082379
I16812055
tp635
(lp636
I5108
aI10321
as(I533255
I2102541
tp637
(lp638
I4294
aI10555
as(I533255
I16812055
tp639
(lp640
I4645
aI10512
as(I1065995
I134253349
tp641
(lp642
I5288
aI9970
as(I8398611
I67144223
tp643
(lp644
I5565
aI10042
as(I2131213
I8423187
tp645
(lp646
I5012
aI10225
as(I147715
I557831
tp647
(lp648
I3835
aI10409
as(I2131213
I4228625
tp649
(lp650
I4895
aI10189
as(I8398611
I33564957
tp651
(lp652
I5445
aI9938
as(I529159
I67144223
tp653
(lp654
I5263
aI10293
as(I73730
I1065995
tp655
(lp656
I3585
aI10335
as(I1057803
I4212241
tp657
(lp658
I4602
aI10438
as(I33573149
I67144223
tp659
(lp660
I5881
aI10012
as(I2131213
I4212241
tp661
(lp662
I4616
aI10089
as(I541447
I8394515
tp663
(lp664
I4510
aI10442
as(I541447
I4199953
tp665
(lp666
I4428
aI10502
as(I147715
I33560861
tp667
(lp668
I4630
aI10153
as(I69634
I268454953
tp669
(lp670
I5600
aI10102
as(I2102541
I67144223
tp671
(lp672
I5265
aI10138
as(I135427
I134228773
tp673
(lp674
I5228
aI10244
as(I67119647
I67144223
tp675
(lp676
I7950
aI9917
as(I33560861
I67144223
tp677
(lp678
I5994
aI10246
as(I69634
I1053707
tp679
(lp680
I3888
aI10193
as(I98306
I1053707
tp681
(lp682
I3530
aI10346
as(I69634
I16783383
tp683
(lp684
I4647
aI10367
as(I8394515
I268442665
tp685
(lp686
I6251
aI10027
as(I2102541
I2114829
tp687
(lp688
I6614
aI9998
as(I164099
I33564957
tp689
(lp690
I4691
aI10339
as(I16783383
I268442665
tp691
(lp692
I6309
aI9878
as(I1053707
I8406803
tp693
(lp694
I4601
aI10252
as(I266757
I295429
tp695
(lp696
I5821
aI10078
as(I33589533
I134253349
tp697
(lp698
I6167
aI9911
as(I8394515
I16812055
tp699
(lp700
I5225
aI10186
as(I73730
I135427
tp701
(lp702
I3435
aI10402
as(I73730
I33564957
tp703
(lp704
I5065
aI10396
as(I533255
I67115551
tp705
(lp706
I5082
aI10185
as(I4212241
I67127839
tp707
(lp708
I5535
aI9931
as(I164099
I2102541
tp709
(lp710
I3842
aI10383
as(I98306
I4199953
tp711
(lp712
I3824
aI10052
as(I1053707
I67127839
tp713
(lp714
I5199
aI10104
as(I33560861
I268446761
tp715
(lp716
I6242
aI9927
as(I98306
I4228625
tp717
(lp718
I4179
aI10309
as(I266757
I2131213
tp719
(lp720
I4063
aI10330
as(I33564957
I268442665
tp721
(lp722
I6398
aI10193
as(I270853
I268446761
tp723
(lp724
I6061
aI10228
as(I295429
I33573149
tp725
(lp726
I4702
aI10307
as(I164099
I8394515
tp727
(lp728
I4211
aI10419
as(I73730
I134228773
tp729
(lp730
I5330
aI10169
as(I164099
I16783383
tp731
(lp732
I4377
aI10300
as(I98306
I16795671
tp733
(lp734
I4341
aI10294
as(I73730
I279045
tp735
(lp736
I3558
aI10469
as(I8394515
I268454953
tp737
(lp738
I6146
aI10085
as(I73730
I541447
tp739
(lp740
I3729
aI10500
as(I139523
I266757
tp741
(lp742
I3780
aI10406
as(I8394515
I67127839
tp743
(lp744
I5555
aI9969
as(I98306
I268471337
tp745
(lp746
I5727
aI10054
as(I98306
I16812055
tp747
(lp748
I4648
aI10240
as(I73730
I134253349
tp749
(lp750
I5082
aI10086
as(I134253349
I268471337
tp751
(lp752
I6431
aI9699
as(I4199953
I268446761
tp753
(lp754
I5947
aI10028
as(I4199953
I4212241
tp755
(lp756
I6817
aI9969
as(I4199953
I8423187
tp757
(lp758
I5001
aI10345
as(I266757
I4228625
tp759
(lp760
I4196
aI10296
as(I16783383
I33560861
tp761
(lp762
I5736
aI9997
as(I270853
I16795671
tp763
(lp764
I4529
aI10247
as(I81922
I529159
tp765
(lp766
I3689
aI10525
as(I4228625
I8394515
tp767
(lp768
I4953
aI10146
as(I295429
I134253349
tp769
(lp770
I5673
aI10259
as(I557831
I2106637
tp771
(lp772
I4178
aI10308
as(I557831
I134236965
tp773
(lp774
I5428
aI10188
as(I270853
I557831
tp775
(lp776
I4009
aI10453
as(I266757
I67115551
tp777
(lp778
I5489
aI10396
as(I33564957
I33573149
tp779
(lp780
I7504
aI9832
as(I16812055
I33560861
tp781
(lp782
I5536
aI10134
as(I2106637
I268471337
tp783
(lp784
I5802
aI9947
as(I270853
I4228625
tp785
(lp786
I4176
aI10433
as(I4212241
I134253349
tp787
(lp788
I5733
aI10193
as(I98306
I4212241
tp789
(lp790
I3964
aI10438
as(I557831
I67144223
tp791
(lp792
I5480
aI10295
as(I1057803
I134224677
tp793
(lp794
I5347
aI9985
as(I69634
I16812055
tp795
(lp796
I4390
aI10450
as(I81922
I541447
tp797
(lp798
I4067
aI10492
as(I8394515
I67119647
tp799
(lp800
I5557
aI10036
as(I533255
I4204049
tp801
(lp802
I4637
aI10278
as(I4204049
I16787479
tp803
(lp804
I5374
aI10206
as(I69634
I268442665
tp805
(lp806
I5778
aI10186
as(I164099
I16812055
tp807
(lp808
I4646
aI10164
as(I164099
I4228625
tp809
(lp810
I4180
aI10224
as(I147715
I8423187
tp811
(lp812
I4204
aI10348
as(I98306
I1065995
tp813
(lp814
I3651
aI10486
as(I98306
I2114829
tp815
(lp816
I3625
aI10092
as(I147715
I8406803
tp817
(lp818
I4360
aI10257
as(I16795671
I67127839
tp819
(lp820
I5993
aI10115
as(I98306
I67115551
tp821
(lp822
I4927
aI10202
as(I541447
I33573149
tp823
(lp824
I5028
aI10087
as(I16795671
I268442665
tp825
(lp826
I6329
aI10242
as(I139523
I164099
tp827
(lp828
I5369
aI9940
as(I67127839
I134228773
tp829
(lp830
I6075
aI9945
as(I270853
I279045
tp831
(lp832
I5567
aI9804
as(I33560861
I134253349
tp833
(lp834
I6043
aI10129
as(I1082379
I4204049
tp835
(lp836
I4532
aI10383
as(I8423187
I134224677
tp837
(lp838
I5947
aI10347
as(I541447
I16787479
tp839
(lp840
I4603
aI10290
as(I69634
I33573149
tp841
(lp842
I4515
aI10087
as(I2102541
I134224677
tp843
(lp844
I5769
aI10157
as(I33564957
I67127839
tp845
(lp846
I5840
aI10052
as(I147715
I2131213
tp847
(lp848
I3857
aI10428
as(I1065995
I4228625
tp849
(lp850
I4495
aI10438
as(I73730
I270853
tp851
(lp852
I3870
aI10328
as(I1082379
I67119647
tp853
(lp854
I5215
aI10105
as(I8406803
I67127839
tp855
(lp856
I5933
aI10218
as(I33564957
I268446761
tp857
(lp858
I6665
aI10182
as(I557831
I1082379
tp859
(lp860
I4561
aI10333
as(I2114829
I33573149
tp861
(lp862
I5315
aI10262
as(I135427
I295429
tp863
(lp864
I3807
aI10518
as(I2106637
I33564957
tp865
(lp866
I5327
aI10141
as(I33560861
I268442665
tp867
(lp868
I6419
aI9969
as(I164099
I8406803
tp869
(lp870
I4156
aI10286
as(I2131213
I8398611
tp871
(lp872
I4764
aI10295
as(I295429
I33560861
tp873
(lp874
I4685
aI10101
as(I147715
I16812055
tp875
(lp876
I4292
aI10248
as(I2106637
I2131213
tp877
(lp878
I6533
aI9873
as(I98306
I266757
tp879
(lp880
I3518
aI10208
as(I1082379
I134228773
tp881
(lp882
I5576
aI10191
as(I8423187
I268446761
tp883
(lp884
I6113
aI10043
as(I164099
I268454953
tp885
(lp886
I5615
aI10055
as(I69634
I164099
tp887
(lp888
I3425
aI10307
as(I67115551
I268442665
tp889
(lp890
I6665
aI10027
as(I81922
I16795671
tp891
(lp892
I4705
aI10307
as(I81922
I268442665
tp893
(lp894
I5657
aI10255
as(I147715
I266757
tp895
(lp896
I3685
aI10261
as(I16787479
I134253349
tp897
(lp898
I5924
aI10081
as(I279045
I67127839
tp899
(lp900
I5341
aI10366
as(I134228773
I268446761
tp901
(lp902
I6692
aI9989
as(I541447
I268454953
tp903
(lp904
I6043
aI10106
as(I4228625
I268454953
tp905
(lp906
I5918
aI10039
as(I134253349
I268442665
tp907
(lp908
I6503
aI9890
as(I139523
I268471337
tp909
(lp910
I5624
aI10202
as(I2114829
I4199953
tp911
(lp912
I4687
aI10270
as(I67127839
I268442665
tp913
(lp914
I6360
aI10029
as(I139523
I16812055
tp915
(lp916
I4413
aI10196
as(I2114829
I16812055
tp917
(lp918
I4858
aI10099
as(I1082379
I2131213
tp919
(lp920
I4712
aI10334
as(I1057803
I134253349
tp921
(lp922
I5570
aI10279
as(I98306
I134224677
tp923
(lp924
I5115
aI10197
as(I1082379
I4199953
tp925
(lp926
I4511
aI10311
as(I1082379
I4228625
tp927
(lp928
I4813
aI10246
as(I4212241
I8423187
tp929
(lp930
I4954
aI10078
as(I164099
I268442665
tp931
(lp932
I5688
aI10233
as(I295429
I16795671
tp933
(lp934
I4537
aI10241
as(I541447
I268442665
tp935
(lp936
I5899
aI10211
as(I135427
I8394515
tp937
(lp938
I4453
aI10183
as(I279045
I529159
tp939
(lp940
I3990
aI10507
as(I2106637
I268442665
tp941
(lp942
I5906
aI10142
as(I73730
I2131213
tp943
(lp944
I3758
aI10417
as(I69634
I8394515
tp945
(lp946
I4535
aI10604
as(I147715
I533255
tp947
(lp948
I3874
aI10411
as(I541447
I134236965
tp949
(lp950
I5729
aI10243
as(I16795671
I33589533
tp951
(lp952
I5648
aI10201
as(I139523
I1053707
tp953
(lp954
I3784
aI10291
as(I8406803
I33564957
tp955
(lp956
I5423
aI10312
as(I279045
I4199953
tp957
(lp958
I4188
aI10469
as(I533255
I4228625
tp959
(lp960
I4282
aI10340
as(I81922
I4212241
tp961
(lp962
I4278
aI10335
as(I73730
I81922
tp963
(lp964
I5059
aI10108
as(I2102541
I4212241
tp965
(lp966
I4549
aI10212
as(I4228625
I67119647
tp967
(lp968
I5513
aI10311
as(I98306
I529159
tp969
(lp970
I3670
aI10325
as(I8423187
I16783383
tp971
(lp972
I5279
aI10083
as(I73730
I134224677
tp973
(lp974
I5171
aI10242
as(I529159
I268471337
tp975
(lp976
I5946
aI10387
as(I135427
I4228625
tp977
(lp978
I3874
aI10289
as(I533255
I268471337
tp979
(lp980
I5880
aI10253
as(I1082379
I8423187
tp981
(lp982
I4939
aI10421
as(I16795671
I134253349
tp983
(lp984
I5921
aI10026
as(I4199953
I16795671
tp985
(lp986
I5057
aI10099
as(I134224677
I268471337
tp987
(lp988
I6652
aI10104
as(I16795671
I268454953
tp989
(lp990
I6424
aI10019
as(I67144223
I134224677
tp991
(lp992
I6165
aI10165
as(I135427
I1057803
tp993
(lp994
I3873
aI10396
as(I33589533
I134228773
tp995
(lp996
I6048
aI10000
as(I16783383
I16787479
tp997
(lp998
I7648
aI10124
as(I8398611
I134253349
tp999
(lp1000
I5694
aI9917
as(I529159
I16787479
tp1001
(lp1002
I4528
aI10182
as(I69634
I33560861
tp1003
(lp1004
I4886
aI10241
as(I33564957
I67115551
tp1005
(lp1006
I5832
aI10040
as(I1053707
I268442665
tp1007
(lp1008
I5977
aI10199
as(I529159
I541447
tp1009
(lp1010
I6081
aI10056
as(I81922
I2106637
tp1011
(lp1012
I3725
aI10522
as(I557831
I67127839
tp1013
(lp1014
I5127
aI10274
as(I529159
I33560861
tp1015
(lp1016
I5086
aI10109
as(I270853
I533255
tp1017
(lp1018
I4430
aI10364
as(I67115551
I268454953
tp1019
(lp1020
I6454
aI10057
as(I2114829
I33560861
tp1021
(lp1022
I4973
aI10091
as(I270853
I268471337
tp1023
(lp1024
I5769
aI10240
as(I295429
I67119647
tp1025
(lp1026
I4956
aI10167
as(I8423187
I268442665
tp1027
(lp1028
I6215
aI10315
as(I135427
I268446761
tp1029
(lp1030
I5750
aI10275
as(I8423187
I16795671
tp1031
(lp1032
I5267
aI10287
as(I81922
I533255
tp1033
(lp1034
I3781
aI10508
as(I139523
I134236965
tp1035
(lp1036
I5228
aI10133
as(I81922
I295429
tp1037
(lp1038
I3500
aI10291
as(I8406803
I268446761
tp1039
(lp1040
I6136
aI10211
as(I557831
I1053707
tp1041
(lp1042
I4167
aI10314
as(I147715
I67127839
tp1043
(lp1044
I5139
aI10225
as(I139523
I16795671
tp1045
(lp1046
I4500
aI10358
as(I2131213
I134224677
tp1047
(lp1048
I5530
aI10100
as(I557831
I8398611
tp1049
(lp1050
I4450
aI10228
as(I98306
I16787479
tp1051
(lp1052
I4253
aI10271
as(I16795671
I134224677
tp1053
(lp1054
I5964
aI10041
as(I16783383
I67127839
tp1055
(lp1056
I5701
aI10005
as(I4199953
I268471337
tp1057
(lp1058
I5939
aI9959
as(I67115551
I67127839
tp1059
(lp1060
I7879
aI9886
as(I1082379
I16783383
tp1061
(lp1062
I4755
aI10284
as(I164099
I134253349
tp1063
(lp1064
I5395
aI10083
as(I2106637
I67127839
tp1065
(lp1066
I5307
aI10340
as(I69634
I4199953
tp1067
(lp1068
I4195
aI10246
as(I4199953
I67144223
tp1069
(lp1070
I5401
aI10150
as(I4204049
I134228773
tp1071
(lp1072
I5900
aI10185
as(I33573149
I134224677
tp1073
(lp1074
I6164
aI10183
as(I1053707
I2131213
tp1075
(lp1076
I4432
aI10292
as(I1057803
I8406803
tp1077
(lp1078
I4639
aI10343
as(I139523
I33573149
tp1079
(lp1080
I4538
aI10006
as(I557831
I33573149
tp1081
(lp1082
I4786
aI10163
as(I4204049
I33589533
tp1083
(lp1084
I5211
aI10133
as(I279045
I134228773
tp1085
(lp1086
I5287
aI10140
as(I4204049
I33573149
tp1087
(lp1088
I5173
aI9981
as(I1065995
I268442665
tp1089
(lp1090
I5882
aI10240
as(I270853
I134236965
tp1091
(lp1092
I5435
aI10329
as(I295429
I268446761
tp1093
(lp1094
I5735
aI10165
as(I81922
I67127839
tp1095
(lp1096
I5163
aI10197
as(I533255
I2106637
tp1097
(lp1098
I4480
aI10272
as(I33589533
I67115551
tp1099
(lp1100
I5732
aI9954
as(I279045
I541447
tp1101
(lp1102
I4287
aI10248
as(I2114829
I268471337
tp1103
(lp1104
I5925
aI10102
as(I98306
I67119647
tp1105
(lp1106
I4795
aI10143
as(I541447
I33560861
tp1107
(lp1108
I4856
aI10359
as(I135427
I533255
tp1109
(lp1110
I3914
aI10564
as(I529159
I134253349
tp1111
(lp1112
I5487
aI10270
as(I16783383
I33573149
tp1113
(lp1114
I5646
aI10177
as(I67119647
I268454953
tp1115
(lp1116
I6472
aI10103
as(I164099
I1057803
tp1117
(lp1118
I3831
aI10489
as(I2131213
I16783383
tp1119
(lp1120
I4915
aI10170
as(I279045
I4212241
tp1121
(lp1122
I4418
aI10317
as(I1057803
I33573149
tp1123
(lp1124
I4924
aI10250
as(I81922
I4204049
tp1125
(lp1126
I3885
aI10286
as(I81922
I8398611
tp1127
(lp1128
I4165
aI10399
as(I8394515
I33573149
tp1129
(lp1130
I5374
aI10138
as(I33560861
I33564957
tp1131
(lp1132
I7586
aI9853
as(I533255
I8406803
tp1133
(lp1134
I4375
aI10298
as(I1082379
I67115551
tp1135
(lp1136
I5241
aI10153
as(I4204049
I16812055
tp1137
(lp1138
I5024
aI10057
as(I16812055
I67115551
tp1139
(lp1140
I5775
aI10114
as(I270853
I2102541
tp1141
(lp1142
I3978
aI10269
as(I1057803
I33564957
tp1143
(lp1144
I5150
aI10140
as(I81922
I1057803
tp1145
(lp1146
I3562
aI10242
as(I33573149
I67119647
tp1147
(lp1148
I5905
aI10085
as(I295429
I8398611
tp1149
(lp1150
I4283
aI10279
as(I295429
I1053707
tp1151
(lp1152
I4045
aI10481
as(I135427
I33573149
tp1153
(lp1154
I4588
aI10219
as(I67144223
I134236965
tp1155
(lp1156
I6158
aI9923
as(I164099
I1082379
tp1157
(lp1158
I4110
aI10343
as(I1065995
I8406803
tp1159
(lp1160
I4983
aI10459
as(I98306
I33589533
tp1161
(lp1162
I4824
aI10225
as(I33560861
I134228773
tp1163
(lp1164
I5973
aI9989
as(I8398611
I8423187
tp1165
(lp1166
I7017
aI9864
as(I73730
I139523
tp1167
(lp1168
I3798
aI10319
as(I541447
I16795671
tp1169
(lp1170
I4939
aI10429
as(I529159
I268454953
tp1171
(lp1172
I5761
aI10115
as(I2114829
I134253349
tp1173
(lp1174
I5478
aI10058
as(I139523
I8398611
tp1175
(lp1176
I4497
aI10235
as(I33589533
I67127839
tp1177
(lp1178
I5828
aI9982
as(I147715
I2106637
tp1179
(lp1180
I3775
aI10161
as(I533255
I33564957
tp1181
(lp1182
I5319
aI10487
as(I533255
I557831
tp1183
(lp1184
I5803
aI9832
as(I1065995
I67127839
tp1185
(lp1186
I5421
aI10115
as(I98306
I270853
tp1187
(lp1188
I3494
aI10377
as(I268442665
I268454953
tp1189
(lp1190
I8408
aI9892
as(I1057803
I8423187
tp1191
(lp1192
I4584
aI10130
as(I8406803
I16783383
tp1193
(lp1194
I5147
aI10150
as(I1053707
I1065995
tp1195
(lp1196
I6286
aI9989
as(I2131213
I33564957
tp1197
(lp1198
I4938
aI9987
as(I279045
I268442665
tp1199
(lp1200
I5645
aI10200
as(I81922
I134236965
tp1201
(lp1202
I5262
aI9995
as(I33573149
I268471337
tp1203
(lp1204
I6196
aI9828
as(I98306
I33573149
tp1205
(lp1206
I4618
aI10203
as(I4212241
I134224677
tp1207
(lp1208
I5578
aI10058
as(I266757
I268442665
tp1209
(lp1210
I5936
aI10133
as(I147715
I8398611
tp1211
(lp1212
I4231
aI10385
as(I147715
I268454953
tp1213
(lp1214
I6006
aI10267
as(I98306
I134228773
tp1215
(lp1216
I5202
aI10324
as(I81922
I134224677
tp1217
(lp1218
I5167
aI10243
as(I147715
I16787479
tp1219
(lp1220
I4417
aI10278
as(I164099
I134224677
tp1221
(lp1222
I5236
aI10171
as(I81922
I2131213
tp1223
(lp1224
I3740
aI10409
as(I541447
I134228773
tp1225
(lp1226
I5380
aI10172
as(I16812055
I67119647
tp1227
(lp1228
I5570
aI9907
as(I147715
I268446761
tp1229
(lp1230
I5790
aI10352
as(I139523
I270853
tp1231
(lp1232
I4024
aI10377
as(I67119647
I268446761
tp1233
(lp1234
I6692
aI10105
as(I16795671
I134236965
tp1235
(lp1236
I6110
aI9900
as(I1065995
I2131213
tp1237
(lp1238
I4487
aI10238
as(I134236965
I268446761
tp1239
(lp1240
I6309
aI9812
as(I1053707
I2102541
tp1241
(lp1242
I4756
aI10367
as(I1065995
I16812055
tp1243
(lp1244
I4851
aI10404
as(I16795671
I67119647
tp1245
(lp1246
I5789
aI10162
as(I2106637
I67115551
tp1247
(lp1248
I5262
aI10097
as(I98306
I541447
tp1249
(lp1250
I3685
aI10354
as(I4228625
I268446761
tp1251
(lp1252
I5996
aI9971
as(I8406803
I134253349
tp1253
(lp1254
I5678
aI9828
as(I279045
I4204049
tp1255
(lp1256
I4056
aI10232
as(I1057803
I2114829
tp1257
(lp1258
I4429
aI10274
as(I2114829
I16787479
tp1259
(lp1260
I4990
aI10408
as(I1057803
I1065995
tp1261
(lp1262
I6233
aI9759
as(I1057803
I134228773
tp1263
(lp1264
I5682
aI10110
as(I279045
I2131213
tp1265
(lp1266
I3998
aI10322
as(I2114829
I268454953
tp1267
(lp1268
I6206
aI10265
as(I295429
I8423187
tp1269
(lp1270
I4636
aI10428
as(I1057803
I268446761
tp1271
(lp1272
I5975
aI10033
as(I2106637
I134236965
tp1273
(lp1274
I5639
aI10116
as(I4212241
I8398611
tp1275
(lp1276
I4883
aI10122
as(I270853
I16812055
tp1277
(lp1278
I4481
aI10129
as(I1065995
I134224677
tp1279
(lp1280
I5531
aI10161
as(I529159
I2114829
tp1281
(lp1282
I4212
aI10303
as(I33564957
I134224677
tp1283
(lp1284
I5995
aI10009
as(I73730
I4212241
tp1285
(lp1286
I3944
aI10607
as(I4228625
I33560861
tp1287
(lp1288
I5134
aI9958
as(I147715
I541447
tp1289
(lp1290
I4171
aI10383
as(I557831
I134228773
tp1291
(lp1292
I5391
aI10076
as(I16795671
I33564957
tp1293
(lp1294
I5575
aI10224
as(I2114829
I67127839
tp1295
(lp1296
I5372
aI9942
as(I8406803
I33589533
tp1297
(lp1298
I5330
aI10069
as(I529159
I67127839
tp1299
(lp1300
I5053
aI10246
as(I69634
I4204049
tp1301
(lp1302
I3909
aI10403
as(I134224677
I134236965
tp1303
(lp1304
I8141
aI9911
as(I529159
I16812055
tp1305
(lp1306
I4621
aI10279
as(I4204049
I134253349
tp1307
(lp1308
I5685
aI10079
as(I4204049
I67119647
tp1309
(lp1310
I5617
aI10048
as(I557831
I8394515
tp1311
(lp1312
I4369
aI10273
as(I557831
I4199953
tp1313
(lp1314
I4353
aI10454
as(I270853
I529159
tp1315
(lp1316
I3986
aI10349
as(I4212241
I16783383
tp1317
(lp1318
I5073
aI10205
as(I295429
I2106637
tp1319
(lp1320
I3993
aI10279
as(I69634
I1057803
tp1321
(lp1322
I3607
aI10347
as(I2114829
I4212241
tp1323
(lp1324
I4895
aI10189
as(I69634
I2106637
tp1325
(lp1326
I3631
aI10159
as(I135427
I33560861
tp1327
(lp1328
I4994
aI10190
as(I164099
I33573149
tp1329
(lp1330
I4752
aI10288
as(I2131213
I4204049
tp1331
(lp1332
I4731
aI10291
as(I67115551
I134236965
tp1333
(lp1334
I6095
aI9942
as(I73730
I557831
tp1335
(lp1336
I3639
aI10386
as(I33564957
I134228773
tp1337
(lp1338
I6154
aI9955
as(I1057803
I4199953
tp1339
(lp1340
I4556
aI10425
as(I279045
I8394515
tp1341
(lp1342
I4257
aI10283
as(I533255
I16783383
tp1343
(lp1344
I4559
aI10445
as(I266757
I16783383
tp1345
(lp1346
I4757
aI10207
as(I2131213
I33589533
tp1347
(lp1348
I5398
aI10259
as(I135427
I2106637
tp1349
(lp1350
I3779
aI10246
as(I164099
I541447
tp1351
(lp1352
I3849
aI10565
as(I1057803
I67115551
tp1353
(lp1354
I5151
aI10171
as(I268446761
I268471337
tp1355
(lp1356
I8428
aI9966
as(I139523
I67115551
tp1357
(lp1358
I4910
aI10256
as(I69634
I67115551
tp1359
(lp1360
I5114
aI10120
as(I4212241
I134236965
tp1361
(lp1362
I5924
aI10202
as(I279045
I268454953
tp1363
(lp1364
I5996
aI10330
as(I557831
I4228625
tp1365
(lp1366
I4633
aI10329
as(I134236965
I268454953
tp1367
(lp1368
I6617
aI9972
as(I16787479
I268446761
tp1369
(lp1370
I6372
aI9918
as(I8398611
I33560861
tp1371
(lp1372
I5444
aI10181
as(I69634
I134253349
tp1373
(lp1374
I5156
aI10267
as(I135427
I8398611
tp1375
(lp1376
I4247
aI10394
as(I135427
I268442665
tp1377
(lp1378
I5875
aI10051
as(I279045
I33564957
tp1379
(lp1380
I4953
aI10394
as(I135427
I16787479
tp1381
(lp1382
I4400
aI10292
as(I16787479
I16795671
tp1383
(lp1384
I7335
aI9876
as(I1057803
I2106637
tp1385
(lp1386
I4603
aI10159
as(I164099
I134236965
tp1387
(lp1388
I5238
aI10104
as(I81922
I270853
tp1389
(lp1390
I3583
aI10494
as(I557831
I134224677
tp1391
(lp1392
I5464
aI10295
as(I69634
I67144223
tp1393
(lp1394
I4898
aI10200
as(I2131213
I33573149
tp1395
(lp1396
I5007
aI10107
as(I135427
I279045
tp1397
(lp1398
I3713
aI10346
as(I8406803
I67115551
tp1399
(lp1400
I5603
aI10071
as(I33573149
I67127839
tp1401
(lp1402
I6005
aI9979
as(I73730
I16787479
tp1403
(lp1404
I4569
aI10192
as(I279045
I8398611
tp1405
(lp1406
I4170
aI10402
as(I557831
I16795671
tp1407
(lp1408
I4428
aI10223
as(I134228773
I268442665
tp1409
(lp1410
I6439
aI9965
as(I279045
I67115551
tp1411
(lp1412
I5078
aI10255
as(I1053707
I16795671
tp1413
(lp1414
I4742
aI10131
as(I2114829
I67144223
tp1415
(lp1416
I5525
aI10445
as(I270853
I8398611
tp1417
(lp1418
I4517
aI10260
as(I2131213
I16795671
tp1419
(lp1420
I4892
aI10193
as(I270853
I134224677
tp1421
(lp1422
I5345
aI10086
as(I295429
I67144223
tp1423
(lp1424
I5287
aI10284
as(I295429
I2102541
tp1425
(lp1426
I4048
aI10434
as(I147715
I67144223
tp1427
(lp1428
I4860
aI10268
as(I16783383
I268454953
tp1429
(lp1430
I6330
aI10138
as(I1053707
I1057803
tp1431
(lp1432
I6288
aI9904
as(I4228625
I33573149
tp1433
(lp1434
I5230
aI10017
as(I1057803
I2102541
tp1435
(lp1436
I4337
aI10204
as(I4199953
I4204049
tp1437
(lp1438
I6781
aI9879
as(I2106637
I134224677
tp1439
(lp1440
I5625
aI10176
as(I266757
I1065995
tp1441
(lp1442
I4022
aI10399
as(I4199953
I8398611
tp1443
(lp1444
I4858
aI10084
as(I8423187
I16812055
tp1445
(lp1446
I5481
aI10209
as(I279045
I16783383
tp1447
(lp1448
I4448
aI10199
as(I98306
I8394515
tp1449
(lp1450
I4106
aI10210
as(I557831
I4204049
tp1451
(lp1452
I4300
aI10346
as(I69634
I134228773
tp1453
(lp1454
I5128
aI10180
as(I295429
I541447
tp1455
(lp1456
I4065
aI10420
as(I279045
I295429
tp1457
(lp1458
I5621
aI9812
as(I164099
I557831
tp1459
(lp1460
I4228
aI10475
as(I266757
I529159
tp1461
(lp1462
I4326
aI10442
as(I139523
I529159
tp1463
(lp1464
I3785
aI10304
as(I134228773
I134253349
tp1465
(lp1466
I8084
aI9755
as(I16783383
I33564957
tp1467
(lp1468
I5622
aI10187
as(I139523
I1057803
tp1469
(lp1470
I4123
aI10281
as(I73730
I8398611
tp1471
(lp1472
I4465
aI10308
as(I533255
I67144223
tp1473
(lp1474
I5093
aI10253
as(I8406803
I33573149
tp1475
(lp1476
I5659
aI10126
as(I8398611
I8406803
tp1477
(lp1478
I6922
aI9686
as(I69634
I67119647
tp1479
(lp1480
I4852
aI10160
as(I81922
I8406803
tp1481
(lp1482
I4402
aI10339
as(I4199953
I67127839
tp1483
(lp1484
I5396
aI10071
as(I33560861
I33573149
tp1485
(lp1486
I7786
aI10004
as(I557831
I8406803
tp1487
(lp1488
I4578
aI10354
as(I541447
I4228625
tp1489
(lp1490
I4216
aI10208
as(I73730
I268454953
tp1491
(lp1492
I5538
aI10075
as(I139523
I4204049
tp1493
(lp1494
I4298
aI10316
as(I4212241
I4228625
tp1495
(lp1496
I6841
aI9841
as(I8423187
I67115551
tp1497
(lp1498
I5526
aI10127
as(I81922
I1065995
tp1499
(lp1500
I4067
aI10492
as(I4212241
I8406803
tp1501
(lp1502
I5177
aI10087
as(I98306
I2131213
tp1503
(lp1504
I4072
aI10407
as(I33573149
I134236965
tp1505
(lp1506
I6315
aI10030
as(I1065995
I33564957
tp1507
(lp1508
I4910
aI10279
as(I1057803
I8394515
tp1509
(lp1510
I4582
aI10258
as(I139523
I4199953
tp1511
(lp1512
I3928
aI10380
as(I16812055
I268442665
tp1513
(lp1514
I6329
aI10088
as(I16812055
I67144223
tp1515
(lp1516
I5937
aI10162
as(I2102541
I8398611
tp1517
(lp1518
I4829
aI10247
as(I529159
I33564957
tp1519
(lp1520
I4864
aI10309
as(I270853
I295429
tp1521
(lp1522
I5654
aI9878
as(I33589533
I134224677
tp1523
(lp1524
I6118
aI9966
as(I8398611
I16812055
tp1525
(lp1526
I5238
aI10229
as(I69634
I135427
tp1527
(lp1528
I3867
aI10462
as(I557831
I16787479
tp1529
(lp1530
I4512
aI10312
as(I16787479
I134228773
tp1531
(lp1532
I6240
aI10148
as(I4228625
I67144223
tp1533
(lp1534
I5710
aI10215
as(I73730
I33589533
tp1535
(lp1536
I4514
aI10138
as(I147715
I2114829
tp1537
(lp1538
I4225
aI10305
as(I266757
I2106637
tp1539
(lp1540
I4213
aI10390
as(I1057803
I67127839
tp1541
(lp1542
I5061
aI9983
as(I73730
I268471337
tp1543
(lp1544
I5527
aI10216
as(I266757
I16787479
tp1545
(lp1546
I4454
aI10231
as(I541447
I2131213
tp1547
(lp1548
I4146
aI10142
as(I270853
I134228773
tp1549
(lp1550
I5533
aI10082
as(I33560861
I33589533
tp1551
(lp1552
I7549
aI9877
as(I69634
I2102541
tp1553
(lp1554
I4037
aI10359
as(I2102541
I268442665
tp1555
(lp1556
I6161
aI10143
as(I147715
I67119647
tp1557
(lp1558
I5014
aI10331
as(I2106637
I8398611
tp1559
(lp1560
I4980
aI10253
as(I81922
I279045
tp1561
(lp1562
I3843
aI10303
as(I266757
I1057803
tp1563
(lp1564
I4030
aI10438
as(I529159
I4199953
tp1565
(lp1566
I4706
aI10419
as(I8394515
I33560861
tp1567
(lp1568
I5610
aI10125
as(I266757
I33564957
tp1569
(lp1570
I4689
aI10137
as(I147715
I16795671
tp1571
(lp1572
I4777
aI10216
as(I1065995
I67144223
tp1573
(lp1574
I5178
aI10139
as(I266757
I33560861
tp1575
(lp1576
I5065
aI10265
as(I279045
I33560861
tp1577
(lp1578
I4656
aI10276
as(I270853
I8423187
tp1579
(lp1580
I4311
aI10435
as(I16812055
I67127839
tp1581
(lp1582
I5656
aI10060
as(I69634
I533255
tp1583
(lp1584
I3626
aI10432
as(I139523
I295429
tp1585
(lp1586
I3836
aI10550
as(I4204049
I33560861
tp1587
(lp1588
I5127
aI10077
as(I8423187
I67144223
tp1589
(lp1590
I5819
aI10094
as(I1082379
I33560861
tp1591
(lp1592
I4913
aI10203
as(I266757
I8398611
tp1593
(lp1594
I4172
aI10096
as(I2106637
I33573149
tp1595
(lp1596
I5050
aI10316
as(I4228625
I33564957
tp1597
(lp1598
I5273
aI10059
as(I1082379
I67144223
tp1599
(lp1600
I5386
aI10226
as(I1082379
I16787479
tp1601
(lp1602
I4745
aI10275
as(I67119647
I134224677
tp1603
(lp1604
I6108
aI10005
as(I529159
I134224677
tp1605
(lp1606
I5654
aI10069
as(I147715
I268442665
tp1607
(lp1608
I5668
aI10180
as(I67144223
I268471337
tp1609
(lp1610
I6628
aI10066
as(I4204049
I134236965
tp1611
(lp1612
I5618
aI10150
as(I270853
I16787479
tp1613
(lp1614
I4662
aI10126
as(I2114829
I16795671
tp1615
(lp1616
I5092
aI10142
as(I4228625
I8406803
tp1617
(lp1618
I4903
aI10328
as(I1065995
I134228773
tp1619
(lp1620
I5492
aI10040
as(I164099
I1065995
tp1621
(lp1622
I3789
aI10452
as(I4212241
I268454953
tp1623
(lp1624
I6293
aI10233
as(I16787479
I67127839
tp1625
(lp1626
I5657
aI9898
as(I1065995
I268446761
tp1627
(lp1628
I5933
aI10314
as(I2131213
I134236965
tp1629
(lp1630
I5518
aI10078
as(I279045
I1057803
tp1631
(lp1632
I3966
aI10283
as(I270853
I541447
tp1633
(lp1634
I4015
aI10251
as(I279045
I16795671
tp1635
(lp1636
I4807
aI10420
as(I541447
I2102541
tp1637
(lp1638
I4115
aI10199
as(I1053707
I33560861
tp1639
(lp1640
I5161
aI10229
as(I69634
I8398611
tp1641
(lp1642
I4065
aI10329
as(I134224677
I134253349
tp1643
(lp1644
I8091
aI9770
as(I295429
I67115551
tp1645
(lp1646
I5110
aI10253
as(I2102541
I33564957
tp1647
(lp1648
I5045
aI10144
as(I2131213
I67127839
tp1649
(lp1650
I5304
aI10249
as(I2102541
I16795671
tp1651
(lp1652
I4823
aI10139
as(I164099
I533255
tp1653
(lp1654
I3829
aI10422
as(I81922
I557831
tp1655
(lp1656
I3661
aI10356
as(I16812055
I33589533
tp1657
(lp1658
I5832
aI10186
as(I1082379
I16795671
tp1659
(lp1660
I4831
aI10398
as(I135427
I1065995
tp1661
(lp1662
I3815
aI10450
as(I8423187
I33564957
tp1663
(lp1664
I5300
aI10072
as(I295429
I4199953
tp1665
(lp1666
I4076
aI10209
as(I16812055
I134228773
tp1667
(lp1668
I6019
aI10152
as(I73730
I4199953
tp1669
(lp1670
I3834
aI10293
as(I2106637
I16812055
tp1671
(lp1672
I4988
aI10347
as(I268446761
I268454953
tp1673
(lp1674
I8407
aI9839
as(I73730
I8394515
tp1675
(lp1676
I4121
aI10286
as(I4204049
I67144223
tp1677
(lp1678
I5434
aI10106
as(I33564957
I33589533
tp1679
(lp1680
I7444
aI9620
as(I8406803
I268442665
tp1681
(lp1682
I6126
aI10087
as(I33573149
I268454953
tp1683
(lp1684
I6488
aI9933
as(I2102541
I16812055
tp1685
(lp1686
I4859
aI10084
as(I98306
I268442665
tp1687
(lp1688
I5578
aI10236
as(I81922
I67144223
tp1689
(lp1690
I4925
aI10327
as(I135427
I4212241
tp1691
(lp1692
I4017
aI10334
as(I73730
I1053707
tp1693
(lp1694
I3687
aI10450
as(I69634
I2131213
tp1695
(lp1696
I3740
aI10439
as(I541447
I1082379
tp1697
(lp1698
I4159
aI10417
as(I69634
I73730
tp1699
(lp1700
I5057
aI10049
as(I270853
I1082379
tp1701
(lp1702
I4099
aI10353
as(I16795671
I268471337
tp1703
(lp1704
I6246
aI10062
as(I266757
I33573149
tp1705
(lp1706
I4810
aI10339
as(I16795671
I268446761
tp1707
(lp1708
I6259
aI10074
as(I557831
I33589533
tp1709
(lp1710
I4986
aI10275
as(I4228625
I268471337
tp1711
(lp1712
I6332
aI10094
as(I33564957
I134253349
tp1713
(lp1714
I6057
aI10063
as(I1065995
I4204049
tp1715
(lp1716
I4483
aI10400
as(I8398611
I134236965
tp1717
(lp1718
I5883
aI10177
as(I73730
I33573149
tp1719
(lp1720
I4562
aI10185
as(I2102541
I8394515
tp1721
(lp1722
I4916
aI10122
as(I139523
I147715
tp1723
(lp1724
I5419
aI10076
as(I98306
I533255
tp1725
(lp1726
I3657
aI10401
as(I139523
I2102541
tp1727
(lp1728
I3977
aI10523
as(I81922
I1082379
tp1729
(lp1730
I3563
aI10304
as(I2102541
I268471337
tp1731
(lp1732
I5925
aI10025
as(I135427
I557831
tp1733
(lp1734
I3718
aI10285
as(I295429
I4228625
tp1735
(lp1736
I4398
aI10263
as(I2102541
I33573149
tp1737
(lp1738
I4997
aI10125
as(I270853
I1065995
tp1739
(lp1740
I3948
aI10452
as(I529159
I33573149
tp1741
(lp1742
I4845
aI10282
as(I135427
I147715
tp1743
(lp1744
I5298
aI9897
as(I533255
I268454953
tp1745
(lp1746
I5760
aI10117
as(I4199953
I268442665
tp1747
(lp1748
I6210
aI10102
as(I135427
I8423187
tp1749
(lp1750
I4185
aI10271
as(I279045
I1053707
tp1751
(lp1752
I4063
aI10460
as(I295429
I33589533
tp1753
(lp1754
I5033
aI10158
as(I139523
I16783383
tp1755
(lp1756
I4424
aI10262
as(I1053707
I16812055
tp1757
(lp1758
I4706
aI10159
as(I147715
I134228773
tp1759
(lp1760
I5192
aI10128
as(I98306
I295429
tp1761
(lp1762
I3862
aI10391
as(I295429
I2114829
tp1763
(lp1764
I4067
aI10306
as(I529159
I1057803
tp1765
(lp1766
I4365
aI10555
as(I139523
I67119647
tp1767
(lp1768
I5201
aI10227
as(I67119647
I134253349
tp1769
(lp1770
I6172
aI10080
as(I67144223
I268442665
tp1771
(lp1772
I6310
aI9871
as(I69634
I134236965
tp1773
(lp1774
I5218
aI10271
as(I1053707
I4204049
tp1775
(lp1776
I4547
aI10232
as(I295429
I529159
tp1777
(lp1778
I4107
aI10520
as(I1065995
I33589533
tp1779
(lp1780
I4896
aI10141
as(I16812055
I134224677
tp1781
(lp1782
I5936
aI10054
as(I529159
I134228773
tp1783
(lp1784
I5458
aI10294
as(I1082379
I268471337
tp1785
(lp1786
I6098
aI10218
as(I67115551
I67144223
tp1787
(lp1788
I7783
aI9795
as(I1065995
I16787479
tp1789
(lp1790
I4801
aI10241
as(I2114829
I67119647
tp1791
(lp1792
I5369
aI10245
as(I266757
I134253349
tp1793
(lp1794
I5346
aI10308
as(I533255
I1053707
tp1795
(lp1796
I4130
aI10327
as(I4228625
I134224677
tp1797
(lp1798
I5680
aI10145
as(I33589533
I268442665
tp1799
(lp1800
I6386
aI9970
as(I2114829
I16783383
tp1801
(lp1802
I4896
aI10214
as(I69634
I270853
tp1803
(lp1804
I3502
aI10359
as(I81922
I268471337
tp1805
(lp1806
I5601
aI10247
as(I1082379
I134224677
tp1807
(lp1808
I5539
aI10279
as(I16787479
I33560861
tp1809
(lp1810
I5735
aI10279
as(I4212241
I33564957
tp1811
(lp1812
I5153
aI10103
as(I1082379
I268442665
tp1813
(lp1814
I5822
aI10162
as(I139523
I8406803
tp1815
(lp1816
I4255
aI10314
as(I4204049
I8394515
tp1817
(lp1818
I4955
aI10216
as(I270853
I134253349
tp1819
(lp1820
I5315
aI10209
as(I4204049
I268442665
tp1821
(lp1822
I6063
aI10096
as(I4199953
I67115551
tp1823
(lp1824
I5644
aI10026
as(I81922
I134228773
tp1825
(lp1826
I5132
aI10133
as(I147715
I1065995
tp1827
(lp1828
I4319
aI10554
as(I1053707
I2106637
tp1829
(lp1830
I4450
aI10391
as(I69634
I529159
tp1831
(lp1832
I3974
aI10292
as(I4228625
I134228773
tp1833
(lp1834
I5632
aI10153
as(I1053707
I4212241
tp1835
(lp1836
I4435
aI10355
as(I8398611
I33573149
tp1837
(lp1838
I5489
aI10258
as(I529159
I134236965
tp1839
(lp1840
I5379
aI10199
as(I16783383
I33589533
tp1841
(lp1842
I5658
aI10179
as(I135427
I1053707
tp1843
(lp1844
I4150
aI10336
as(I8394515
I33564957
tp1845
(lp1846
I5374
aI10221
as(I279045
I4228625
tp1847
(lp1848
I4085
aI10285
as(I164099
I268471337
tp1849
(lp1850
I5877
aI10139
as(I98306
I4204049
tp1851
(lp1852
I3732
aI10192
as(I16783383
I16795671
tp1853
(lp1854
I7506
aI9997
as(I541447
I268471337
tp1855
(lp1856
I5773
aI10080
as(I4204049
I4212241
tp1857
(lp1858
I6757
aI9795
as(I139523
I33589533
tp1859
(lp1860
I4731
aI10361
as(I4212241
I67115551
tp1861
(lp1862
I5324
aI10015
as(I266757
I2102541
tp1863
(lp1864
I4385
aI10238
as(I541447
I33589533
tp1865
(lp1866
I4908
aI10234
as(I541447
I8423187
tp1867
(lp1868
I4309
aI10104
as(I541447
I4204049
tp1869
(lp1870
I4285
aI10349
as(I279045
I1082379
tp1871
(lp1872
I4094
aI10476
as(I98306
I147715
tp1873
(lp1874
I3398
aI10286
as(I98306
I268454953
tp1875
(lp1876
I5527
aI10199
as(I135427
I4199953
tp1877
(lp1878
I4384
aI10368
as(I98306
I8398611
tp1879
(lp1880
I4068
aI10343
as(I1082379
I2102541
tp1881
(lp1882
I4444
aI10348
as(I557831
I268442665
tp1883
(lp1884
I5801
aI10142
as(I529159
I67115551
tp1885
(lp1886
I5276
aI10046
as(I134236965
I134253349
tp1887
(lp1888
I8125
aI9860
as(I279045
I557831
tp1889
(lp1890
I4137
aI10506
as(I1065995
I1082379
tp1891
(lp1892
I6180
aI9880
as(I1053707
I8423187
tp1893
(lp1894
I4608
aI10346
as(I268442665
I268446761
tp1895
(lp1896
I8383
aI9854
as(I2114829
I268446761
tp1897
(lp1898
I5874
aI9998
as(I147715
I164099
tp1899
(lp1900
I5277
aI9839
as(I2106637
I8394515
tp1901
(lp1902
I4724
aI10378
as(I4199953
I134224677
tp1903
(lp1904
I5797
aI10085
as(I529159
I33589533
tp1905
(lp1906
I4777
aI10062
as(I270853
I2114829
tp1907
(lp1908
I4111
aI10475
as(I8398611
I16783383
tp1909
(lp1910
I5312
aI10181
as(I8398611
I16787479
tp1911
(lp1912
I5362
aI9918
as(I8398611
I134224677
tp1913
(lp1914
I5782
aI10125
as(I533255
I16787479
tp1915
(lp1916
I4944
aI10391
as(I98306
I33560861
tp1917
(lp1918
I4635
aI10357
as(I16783383
I134224677
tp1919
(lp1920
I6182
aI10031
as(I33589533
I67144223
tp1921
(lp1922
I5895
aI9930
as(I164099
I2106637
tp1923
(lp1924
I3936
aI10334
as(I16795671
I16812055
tp1925
(lp1926
I7374
aI9879
as(I533255
I541447
tp1927
(lp1928
I5976
aI9997
as(I139523
I541447
tp1929
(lp1930
I3801
aI10369
as(I67127839
I134236965
tp1931
(lp1932
I6365
aI10100
as(I33564957
I268454953
tp1933
(lp1934
I6382
aI10085
as(I295429
I1082379
tp1935
(lp1936
I4265
aI10215
as(I295429
I134228773
tp1937
(lp1938
I5266
aI10077
as(I98306
I139523
tp1939
(lp1940
I3560
aI10555
as(I2106637
I33589533
tp1941
(lp1942
I5122
aI10303
as(I295429
I268442665
tp1943
(lp1944
I5694
aI9978
as(I98306
I8406803
tp1945
(lp1946
I4161
aI10391
as(I266757
I270853
tp1947
(lp1948
I5550
aI9842
as(I164099
I270853
tp1949
(lp1950
I3837
aI10360
as(I1057803
I33589533
tp1951
(lp1952
I4911
aI10221
as(I266757
I1082379
tp1953
(lp1954
I4025
aI10355
as(I73730
I33560861
tp1955
(lp1956
I4516
aI10137
as(I4212241
I268442665
tp1957
(lp1958
I5983
aI10093
as(I266757
I33589533
tp1959
(lp1960
I4756
aI10133
as(I164099
I16787479
tp1961
(lp1962
I4409
aI10314
as(I533255
I33573149
tp1963
(lp1964
I4826
aI10317
as(I2114829
I2131213
tp1965
(lp1966
I6383
aI9616
as(I164099
I67119647
tp1967
(lp1968
I4984
aI10331
as(I69634
I295429
tp1969
(lp1970
I3546
aI10548
as(I541447
I8406803
tp1971
(lp1972
I4673
aI10147
as(I16783383
I67115551
tp1973
(lp1974
I6096
aI10084
as(I164099
I268446761
tp1975
(lp1976
I5625
aI10181
as(I8423187
I67127839
tp1977
(lp1978
I5686
aI10127
as(I2114829
I4204049
tp1979
(lp1980
I4574
aI10170
as(I81922
I16783383
tp1981
(lp1982
I4341
aI10140
as(I266757
I8423187
tp1983
(lp1984
I4153
aI10116
as(I134253349
I268446761
tp1985
(lp1986
I6381
aI9845
as(I67119647
I67127839
tp1987
(lp1988
I7927
aI9925
as(I1065995
I16795671
tp1989
(lp1990
I4890
aI9987
as(I8394515
I67144223
tp1991
(lp1992
I5633
aI10212
as(I557831
I16812055
tp1993
(lp1994
I4881
aI10211
as(I4199953
I268454953
tp1995
(lp1996
I6050
aI10123
as(I8398611
I67119647
tp1997
(lp1998
I5862
aI10147
as(I295429
I16783383
tp1999
(lp2000
I4441
aI10137
as(I1057803
I2131213
tp2001
(lp2002
I4453
aI10393
as(I2106637
I8406803
tp2003
(lp2004
I4789
aI10343
as(I1057803
I1082379
tp2005
(lp2006
I6224
aI9990
as(I81922
I135427
tp2007
(lp2008
I3497
aI10535
as(I2131213
I134228773
tp2009
(lp2010
I5615
aI10228
as(I4199953
I33564957
tp2011
(lp2012
I5197
aI10153
as(I1082379
I268454953
tp2013
(lp2014
I5870
aI10251
as(I81922
I147715
tp2015
(lp2016
I3739
aI10224
as(I557831
I134253349
tp2017
(lp2018
I5649
aI10204
as(I4228625
I8398611
tp2019
(lp2020
I4957
aI10261
as(I279045
I134224677
tp2021
(lp2022
I5350
aI10267
as(I557831
I2114829
tp2023
(lp2024
I4334
aI10383
as(I98306
I67144223
tp2025
(lp2026
I5145
aI10173
as(I8394515
I134253349
tp2027
(lp2028
I5783
aI10069
as(I164099
I8398611
tp2029
(lp2030
I4166
aI10298
as(I266757
I541447
tp2031
(lp2032
I4060
aI10467
as(I2114829
I268442665
tp2033
(lp2034
I5852
aI10061
as(I529159
I1082379
tp2035
(lp2036
I4234
aI10423
as(I139523
I533255
tp2037
(lp2038
I4043
aI10211
as(I533255
I134253349
tp2039
(lp2040
I5458
aI10240
as(I16787479
I33573149
tp2041
(lp2042
I5511
aI10102
as(I147715
I1053707
tp2043
(lp2044
I3862
aI10437
as(I8423187
I33589533
tp2045
(lp2046
I5631
aI10150
as(I266757
I4212241
tp2047
(lp2048
I4114
aI10362
as(I8394515
I8406803
tp2049
(lp2050
I7299
aI10106
as(I81922
I8423187
tp2051
(lp2052
I4164
aI10424
as(I2106637
I4199953
tp2053
(lp2054
I4699
aI10203
as(I1053707
I33564957
tp2055
(lp2056
I4885
aI10339
as(I67119647
I268442665
tp2057
(lp2058
I6473
aI10143
as(I67115551
I134224677
tp2059
(lp2060
I6361
aI10125
as(I529159
I8398611
tp2061
(lp2062
I4401
aI10335
as(I16787479
I33564957
tp2063
(lp2064
I5770
aI10112
as(I135427
I266757
tp2065
(lp2066
I4092
aI10347
as(I4228625
I16783383
tp2067
(lp2068
I5052
aI10127
as(I33560861
I268471337
tp2069
(lp2070
I6296
aI9942
as(I8394515
I134228773
tp2071
(lp2072
I5905
aI10276
as(I270853
I2131213
tp2073
(lp2074
I4160
aI10527
as(I266757
I4199953
tp2075
(lp2076
I4457
aI10272
as(I557831
I268454953
tp2077
(lp2078
I5732
aI9954
as(I4204049
I268446761
tp2079
(lp2080
I6255
aI10044
as(I279045
I2106637
tp2081
(lp2082
I4012
aI10391
as(I541447
I67115551
tp2083
(lp2084
I5147
aI10224
as(I529159
I4204049
tp2085
(lp2086
I4242
aI10303
as(I139523
I134253349
tp2087
(lp2088
I5234
aI10230
as(I98306
I1057803
tp2089
(lp2090
I3638
aI10374
as(I557831
I268471337
tp2091
(lp2092
I6159
aI10310
as(I529159
I8394515
tp2093
(lp2094
I4770
aI10336
as(I557831
I33564957
tp2095
(lp2096
I4816
aI10256
as(I16787479
I67115551
tp2097
(lp2098
I5679
aI9879
as(I279045
I268471337
tp2099
(lp2100
I5793
aI10160
as(I279045
I8423187
tp2101
(lp2102
I4313
aI10476
as(I8394515
I134224677
tp2103
(lp2104
I6068
aI10112
as(I529159
I16795671
tp2105
(lp2106
I4565
aI10241
as(I81922
I33589533
tp2107
(lp2108
I4486
aI10110
as(I2114829
I8423187
tp2109
(lp2110
I4717
aI10203
as(I33573149
I67115551
tp2111
(lp2112
I5765
aI9935
as(I16783383
I134236965
tp2113
(lp2114
I5911
aI10055
as(I4204049
I67115551
tp2115
(lp2116
I5513
aI10260
as(I270853
I268454953
tp2117
(lp2118
I5726
aI10150
as(I2102541
I8406803
tp2119
(lp2120
I4766
aI10283
as(I1053707
I33573149
tp2121
(lp2122
I4887
aI10102
as(I67127839
I268471337
tp2123
(lp2124
I6325
aI9981
as(I270853
I8394515
tp2125
(lp2126
I4242
aI10316
as(I1057803
I67119647
tp2127
(lp2128
I5537
aI10283
as(I270853
I16783383
tp2129
(lp2130
I4589
aI10179
as(I98306
I134253349
tp2131
(lp2132
I5473
aI10295
as(I2114829
I8398611
tp2133
(lp2134
I4555
aI10067
as(I557831
I1065995
tp2135
(lp2136
I4288
aI10362
as(I295429
I1057803
tp2137
(lp2138
I4049
aI10539
as(I135427
I2102541
tp2139
(lp2140
I4162
aI10407
as(I270853
I2106637
tp2141
(lp2142
I4456
aI10420
as(I295429
I33564957
tp2143
(lp2144
I4757
aI10256
as(I1065995
I268471337
tp2145
(lp2146
I5690
aI10020
as(I67115551
I134253349
tp2147
(lp2148
I6074
aI9903
as(I147715
I134236965
tp2149
(lp2150
I5604
aI10279
as(I135427
I139523
tp2151
(lp2152
I5359
aI10073
as(I139523
I268442665
tp2153
(lp2154
I5697
aI10255
as(I16795671
I67115551
tp2155
(lp2156
I5669
aI10031
as(I135427
I67115551
tp2157
(lp2158
I5322
aI10234
as(I69634
I81922
tp2159
(lp2160
I5186
aI10192
as(I16795671
I67144223
tp2161
(lp2162
I5789
aI10049
as(I295429
I16812055
tp2163
(lp2164
I4762
aI10341
as(I1082379
I33564957
tp2165
(lp2166
I4941
aI10384
as(I270853
I8406803
tp2167
(lp2168
I4183
aI10231
as(I69634
I134224677
tp2169
(lp2170
I5413
aI10238
as(I134224677
I268446761
tp2171
(lp2172
I6331
aI9765
as(I8406803
I134228773
tp2173
(lp2174
I5739
aI10000
as(I1057803
I16783383
tp2175
(lp2176
I4828
aI10272
as(I73730
I67119647
tp2177
(lp2178
I5089
aI10195
as(I4212241
I8394515
tp2179
(lp2180
I4853
aI10115
as(I1053707
I67144223
tp2181
(lp2182
I5096
aI10061
as(I270853
I4204049
tp2183
(lp2184
I4503
aI10360
as(I1082379
I134253349
tp2185
(lp2186
I5807
aI10262
as(I1065995
I2102541
tp2187
(lp2188
I4342
aI10268
as(I2102541
I16787479
tp2189
(lp2190
I4845
aI10011
as(I1053707
I134236965
tp2191
(lp2192
I5493
aI10152
as(I73730
I16812055
tp2193
(lp2194
I4327
aI10233
as(I266757
I2114829
tp2195
(lp2196
I4084
aI10385
as(I81922
I2114829
tp2197
(lp2198
I4007
aI10344
as(I1053707
I268454953
tp2199
(lp2200
I5788
aI10196
as(I98306
I279045
tp2201
(lp2202
I3446
aI10260
as(I279045
I134236965
tp2203
(lp2204
I5515
aI10176
as(I533255
I2114829
tp2205
(lp2206
I4286
aI10354
as(I81922
I4228625
tp2207
(lp2208
I3840
aI10135
as(I2131213
I16787479
tp2209
(lp2210
I4916
aI10191
as(I16787479
I268471337
tp2211
(lp2212
I6278
aI10083
as(I279045
I67119647
tp2213
(lp2214
I5047
aI10195
as(I2131213
I67115551
tp2215
(lp2216
I5273
aI10221
as(I135427
I541447
tp2217
(lp2218
I3809
aI10299
as(I541447
I134224677
tp2219
(lp2220
I5506
aI10257
as(I2131213
I268446761
tp2221
(lp2222
I5837
aI10091
as(I8406803
I33560861
tp2223
(lp2224
I5359
aI9980
as(I533255
I67127839
tp2225
(lp2226
I5125
aI10182
as(I16783383
I16812055
tp2227
(lp2228
I7274
aI9732
as(I73730
I4204049
tp2229
(lp2230
I4219
aI10379
as(I69634
I98306
tp2231
(lp2232
I5081
aI9970
as(I16812055
I33564957
tp2233
(lp2234
I5574
aI10102
as(I67115551
I67119647
tp2235
(lp2236
I7850
aI9750
as(I8423187
I268454953
tp2237
(lp2238
I6159
aI10163
as(I2102541
I4199953
tp2239
(lp2240
I4992
aI10409
as(I164099
I4212241
tp2241
(lp2242
I3982
aI10356
as(I4228625
I134253349
tp2243
(lp2244
I5961
aI10199
as(I67127839
I134224677
tp2245
(lp2246
I6140
aI10100
as(I541447
I4212241
tp2247
(lp2248
I4624
aI10253
as(I4212241
I16812055
tp2249
(lp2250
I5045
aI10207
as(I81922
I268446761
tp2251
(lp2252
I5698
aI10476
as(I533255
I8394515
tp2253
(lp2254
I4340
aI10120
as(I279045
I2102541
tp2255
(lp2256
I3949
aI10195
as(I2114829
I33589533
tp2257
(lp2258
I5199
aI10216
as(I1057803
I4228625
tp2259
(lp2260
I4475
aI10143
as(I73730
I1057803
tp2261
(lp2262
I3770
aI10151
as(I73730
I67127839
tp2263
(lp2264
I4787
aI10084
as(I73730
I2106637
tp2265
(lp2266
I3979
aI10320
as(I139523
I134224677
tp2267
(lp2268
I5273
aI10282
as(I1082379
I33573149
tp2269
(lp2270
I4973
aI10251
as(I69634
I147715
tp2271
(lp2272
I3417
aI10237
as(I164099
I33560861
tp2273
(lp2274
I4757
aI10298
as(I16783383
I268446761
tp2275
(lp2276
I6355
aI10064
as(I533255
I33560861
tp2277
(lp2278
I4884
aI10275
as(I8423187
I268471337
tp2279
(lp2280
I6183
aI9938
as(I8406803
I16787479
tp2281
(lp2282
I5207
aI10211
as(I8394515
I134236965
tp2283
(lp2284
I5774
aI10132
as(I2102541
I4204049
tp2285
(lp2286
I4567
aI10222
as(I295429
I134236965
tp2287
(lp2288
I5390
aI10352
as(I8406803
I268454953
tp2289
(lp2290
I6180
aI9925
as(I33589533
I67119647
tp2291
(lp2292
I5857
aI10147
as(I139523
I2106637
tp2293
(lp2294
I4109
aI10180
as(I270853
I67119647
tp2295
(lp2296
I5222
aI10049
as(I541447
I557831
tp2297
(lp2298
I5903
aI9820
as(I1057803
I67144223
tp2299
(lp2300
I5313
aI10216
as(I33589533
I268454953
tp2301
(lp2302
I6290
aI9999
as(I541447
I16783383
tp2303
(lp2304
I4494
aI10069
as(I1065995
I33573149
tp2305
(lp2306
I5179
aI10193
as(I270853
I33573149
tp2307
(lp2308
I4734
aI10128
as(I2102541
I2106637
tp2309
(lp2310
I6478
aI9871
as(I1053707
I67119647
tp2311
(lp2312
I5134
aI10072
as(I164099
I2114829
tp2313
(lp2314
I3861
aI10272
as(I81922
I2102541
tp2315
(lp2316
I3691
aI10380
as(I8423187
I134236965
tp2317
(lp2318
I5810
aI10085
as(I2131213
I33560861
tp2319
(lp2320
I5124
aI10256
as(I33560861
I67115551
tp2321
(lp2322
I6013
aI10052
as(I164099
I16795671
tp2323
(lp2324
I4412
aI10143
as(I541447
I33564957
tp2325
(lp2326
I4883
aI10248
as(I533255
I2131213
tp2327
(lp2328
I4287
aI10256
as(I139523
I16787479
tp2329
(lp2330
I4815
aI10321
as(I147715
I134253349
tp2331
(lp2332
I5157
aI10190
as(I164099
I8423187
tp2333
(lp2334
I4455
aI10159
as(I529159
I16783383
tp2335
(lp2336
I4914
aI10284
as(I8398611
I268471337
tp2337
(lp2338
I6156
aI10113
as(I139523
I268446761
tp2339
(lp2340
I5773
aI9976
as(I139523
I279045
tp2341
(lp2342
I3814
aI10402
as(I67144223
I268446761
tp2343
(lp2344
I6442
aI10052
as(I1057803
I268471337
tp2345
(lp2346
I5778
aI10054
as(I16795671
I134228773
tp2347
(lp2348
I5985
aI10061
as(I8423187
I16787479
tp2349
(lp2350
I5218
aI10181
as(I2102541
I8423187
tp2351
(lp2352
I4573
aI10075
as(I557831
I2102541
tp2353
(lp2354
I4345
aI10385
as(I1057803
I16795671
tp2355
(lp2356
I4602
aI10044
as(I1082379
I134236965
tp2357
(lp2358
I5395
aI10030
as(I2114829
I67115551
tp2359
(lp2360
I5291
aI10239
as(I1057803
I4204049
tp2361
(lp2362
I4800
aI10492
as(I1053707
I134224677
tp2363
(lp2364
I5691
aI10243
as(I295429
I268471337
tp2365
(lp2366
I6032
aI10192
as(I16787479
I16812055
tp2367
(lp2368
I7430
aI9886
as(I4212241
I134228773
tp2369
(lp2370
I5573
aI10150
as(I533255
I134228773
tp2371
(lp2372
I5637
aI10098
as(I2106637
I16787479
tp2373
(lp2374
I5107
aI10200
as(I73730
I134236965
tp2375
(lp2376
I5120
aI10263
as(I33564957
I268471337
tp2377
(lp2378
I6477
aI10187
as(I135427
I1082379
tp2379
(lp2380
I3776
aI10232
as(I4199953
I33589533
tp2381
(lp2382
I5245
aI10256
as(I139523
I268454953
tp2383
(lp2384
I5720
aI10276
as(I2131213
I134253349
tp2385
(lp2386
I5781
aI10229
as(I2102541
I268454953
tp2387
(lp2388
I6006
aI10244
as(I4204049
I8398611
tp2389
(lp2390
I5133
aI10122
as(I8394515
I268446761
tp2391
(lp2392
I6024
aI10082
as(I279045
I16812055
tp2393
(lp2394
I4459
aI10246
as(I81922
I33560861
tp2395
(lp2396
I4627
aI10264
as(I8406803
I16795671
tp2397
(lp2398
I5454
aI10135
as(I295429
I8394515
tp2399
(lp2400
I4211
aI10466
as(I266757
I533255
tp2401
(lp2402
I3927
aI10331
as(I266757
I67119647
tp2403
(lp2404
I4919
aI10109
as(I529159
I268446761
tp2405
(lp2406
I5830
aI10168
as(I541447
I67119647
tp2407
(lp2408
I5145
aI10113
as(I33560861
I134236965
tp2409
(lp2410
I6131
aI10211
as(I139523
I557831
tp2411
(lp2412
I3886
aI10327
as(I16812055
I33573149
tp2413
(lp2414
I5582
aI10067
as(I2114829
I134224677
tp2415
(lp2416
I5730
aI10310
as(I557831
I67115551
tp2417
(lp2418
I5000
aI10033
as(I67119647
I268471337
tp2419
(lp2420
I6387
aI9907
as(I69634
I4212241
tp2421
(lp2422
I3767
aI10106
as(I4199953
I134236965
tp2423
(lp2424
I5628
aI10113
as(I69634
I8406803
tp2425
(lp2426
I4109
aI10286
as(I2106637
I4212241
tp2427
(lp2428
I4671
aI10251
as(I4204049
I67127839
tp2429
(lp2430
I5396
aI10086
as(I529159
I268442665
tp2431
(lp2432
I6043
aI10165
as(I33560861
I134224677
tp2433
(lp2434
I6161
aI9913
as(I529159
I8423187
tp2435
(lp2436
I4487
aI10383
as(I1082379
I268446761
tp2437
(lp2438
I5765
aI9969
as(I529159
I4228625
tp2439
(lp2440
I4353
aI10317
as(I135427
I529159
tp2441
(lp2442
I4110
aI10393
as(I134224677
I268454953
tp2443
(lp2444
I6551
aI10037
as(I69634
I268446761
tp2445
(lp2446
I5577
aI10180
as(I139523
I134228773
tp2447
(lp2448
I5519
aI10227
as(I279045
I2114829
tp2449
(lp2450
I4408
aI10384
as(I533255
I268446761
tp2451
(lp2452
I6046
aI10160
as(I69634
I1065995
tp2453
(lp2454
I3737
aI10643
as(I4228625
I8423187
tp2455
(lp2456
I5258
aI10227
as(I69634
I2114829
tp2457
(lp2458
I3742
aI10415
as(I266757
I134228773
tp2459
(lp2460
I5294
aI10218
as(I147715
I33589533
tp2461
(lp2462
I4612
aI10211
as(I16812055
I268471337
tp2463
(lp2464
I6485
aI10032
as(I4212241
I33560861
tp2465
(lp2466
I5217
aI10103
as(I1065995
I268454953
tp2467
(lp2468
I6097
aI10128
as(I67119647
I134228773
tp2469
(lp2470
I6382
aI10110
as(I67115551
I134228773
tp2471
(lp2472
I6224
aI10067
as(I16783383
I67144223
tp2473
(lp2474
I5757
aI10104
as(I33564957
I134236965
tp2475
(lp2476
I5995
aI10066
as(I1065995
I4199953
tp2477
(lp2478
I4378
aI10113
as(I8423187
I134228773
tp2479
(lp2480
I5806
aI10051
as(I1057803
I16787479
tp2481
(lp2482
I5085
aI10312
as(I81922
I33564957
tp2483
(lp2484
I4644
aI10369
as(I134236965
I268471337
tp2485
(lp2486
I6525
aI10039
as(I81922
I134253349
tp2487
(lp2488
I5093
aI10239
as(I33560861
I67119647
tp2489
(lp2490
I5867
aI10127
as(I135427
I2114829
tp2491
(lp2492
I3909
aI10521
as(I1065995
I67115551
tp2493
(lp2494
I5236
aI10204
as(I529159
I2102541
tp2495
(lp2496
I4453
aI10272
as(I268454953
I268471337
tp2497
(lp2498
I8362
aI9823
as(I2102541
I268446761
tp2499
(lp2500
I5864
aI10059
as(I33573149
I268442665
tp2501
(lp2502
I6351
aI10031
as(I270853
I67115551
tp2503
(lp2504
I4911
aI10179
as(I279045
I268446761
tp2505
(lp2506
I5715
aI10185
as(I134228773
I268471337
tp2507
(lp2508
I6412
aI9873
as(I4199953
I16783383
tp2509
(lp2510
I5210
aI10133
as(I1065995
I4212241
tp2511
(lp2512
I4783
aI10305
as(I139523
I33564957
tp2513
(lp2514
I4824
aI10091
as(I135427
I8406803
tp2515
(lp2516
I4180
aI10340
as(I134224677
I134228773
tp2517
(lp2518
I8209
aI9916
as(I147715
I67115551
tp2519
(lp2520
I4972
aI10240
as(I270853
I33564957
tp2521
(lp2522
I4992
aI10152
as(I135427
I16795671
tp2523
(lp2524
I4450
aI10246
as(I1082379
I8398611
tp2525
(lp2526
I4615
aI10143
as(I164099
I134228773
tp2527
(lp2528
I5305
aI10279
as(I8423187
I67119647
tp2529
(lp2530
I5598
aI10062
as(I557831
I67119647
tp2531
(lp2532
I5153
aI10193
as(I81922
I67115551
tp2533
(lp2534
I4806
aI10204
as(I73730
I533255
tp2535
(lp2536
I4016
aI10402
as(I4199953
I16812055
tp2537
(lp2538
I5062
aI10228
as(I4204049
I4228625
tp2539
(lp2540
I6790
aI9883
as(I1065995
I8394515
tp2541
(lp2542
I4488
aI10187
as(I69634
I557831
tp2543
(lp2544
I3638
aI10375
as(I1082379
I33589533
tp2545
(lp2546
I5241
aI10379
as(I295429
I8406803
tp2547
(lp2548
I4279
aI10426
as(I1053707
I33589533
tp2549
(lp2550
I4834
aI10270
as(I134236965
I268442665
tp2551
(lp2552
I6403
aI9804
as(I1053707
I16787479
tp2553
(lp2554
I4703
aI10226
as(I533255
I1065995
tp2555
(lp2556
I4121
aI10275
as(I2131213
I67119647
tp2557
(lp2558
I5298
aI10170
as(I4204049
I16795671
tp2559
(lp2560
I4983
aI10116
as(I266757
I8406803
tp2561
(lp2562
I4292
aI10404
as(I139523
I2131213
tp2563
(lp2564
I3876
aI10502
as(I81922
I67119647
tp2565
(lp2566
I4815
aI10190
as(I4199953
I134228773
tp2567
(lp2568
I5512
aI9877
as(I8394515
I16783383
tp2569
(lp2570
I5473
aI10185
as(I529159
I4212241
tp2571
(lp2572
I4318
aI10233
as(I1082379
I8406803
tp2573
(lp2574
I4563
aI10242
as(I295429
I268454953
tp2575
(lp2576
I5718
aI10109
as(I8423187
I33560861
tp2577
(lp2578
I5494
aI10233
as(I4199953
I67119647
tp2579
(lp2580
I5341
aI10037
as(I2102541
I134253349
tp2581
(lp2582
I5655
aI10140
as(I69634
I8423187
tp2583
(lp2584
I4051
aI10508
as(I4199953
I8406803
tp2585
(lp2586
I5033
aI10200
as(I266757
I16795671
tp2587
(lp2588
I4476
aI10079
as(I2102541
I33589533
tp2589
(lp2590
I5058
aI10179
as(I67144223
I134253349
tp2591
(lp2592
I6122
aI9787
as(I4212241
I67144223
tp2593
(lp2594
I5366
aI10185
as(I135427
I2131213
tp2595
(lp2596
I3846
aI10428
as(I533255
I1082379
tp2597
(lp2598
I4295
aI10377
as(I73730
I67115551
tp2599
(lp2600
I4860
aI10366
as(I295429
I557831
tp2601
(lp2602
I4330
aI10364
as(I2106637
I268446761
tp2603
(lp2604
I6037
aI10072
as(I266757
I268454953
tp2605
(lp2606
I5893
aI10427
as(I4228625
I16795671
tp2607
(lp2608
I5156
aI10221
as(I147715
I529159
tp2609
(lp2610
I3917
aI10466
as(I73730
I16783383
tp2611
(lp2612
I4422
aI10342
as(I139523
I1082379
tp2613
(lp2614
I3903
aI10433
as(I541447
I67144223
tp2615
(lp2616
I5161
aI10165
as(I541447
I8398611
tp2617
(lp2618
I4414
aI10276
as(I73730
I4228625
tp2619
(lp2620
I3912
aI10429
as(I134228773
I268454953
tp2621
(lp2622
I6569
aI10151
as(I4204049
I268471337
tp2623
(lp2624
I6048
aI10181
as(I73730
I8423187
tp2625
(lp2626
I4074
aI10169
as(I139523
I67144223
tp2627
(lp2628
I4880
aI10226
as(I4228625
I67115551
tp2629
(lp2630
I5429
aI10172
as(I4228625
I33589533
tp2631
(lp2632
I5487
aI10242
as(I69634
I1082379
tp2633
(lp2634
I3655
aI10356
as(I135427
I268454953
tp2635
(lp2636
I5687
aI10227
as(I8394515
I268471337
tp2637
(lp2638
I5990
aI9906
as(I557831
I4212241
tp2639
(lp2640
I4360
aI10375
as(I1065995
I33560861
tp2641
(lp2642
I4959
aI10330
as(I81922
I268454953
tp2643
(lp2644
I5931
aI10255
as(I533255
I4212241
tp2645
(lp2646
I4272
aI10264
as(I139523
I4212241
tp2647
(lp2648
I3974
aI10330
as(I16783383
I67119647
tp2649
(lp2650
I5678
aI10002
as(I1053707
I4199953
tp2651
(lp2652
I4702
aI10156
as.