(dp0
(I73730
I1082379
tp1
(lp2
I4267
aI11838
as(I266757
I67127839
tp3
(lp4
I5925
aI11925
as(I135427
I134253349
tp5
(lp6
I5984
aI11677
as(I2106637
I67119647
tp7
(lp8
I6286
aI11641
as(I69634
I268471337
tp9
(lp10
I6397
aI11573
as(I135427
I8423187
tp11
(lp12
I4841
aI11825
as(I1057803
I8398611
tp13
(lp14
I5611
aI11872
as(I16783383
I134228773
tp15
(lp16
I6895
aI11519
as(I16787479
I268442665
tp17
(lp18
I7244
aI11616
as(I81922
I164099
tp19
(lp20
I4042
aI12074
as(I69634
I33564957
tp21
(lp22
I5294
aI11930
as(I279045
I67144223
tp23
(lp24
I5850
aI11913
as(I135427
I67119647
tp25
(lp26
I5709
aI11930
as(I139523
I2131213
tp27
(lp28
I4504
aI12131
as(I164099
I2131213
tp29
(lp30
I4931
aI12235
as(I533255
I1057803
tp31
(lp32
I5149
aI12026
as(I270853
I134253349
tp33
(lp34
I6111
aI11743
as(I2102541
I4212241
tp35
(lp36
I5251
aI11707
as(I295429
I2131213
tp37
(lp38
I5235
aI12140
as(I8406803
I8423187
tp39
(lp40
I8304
aI11492
as(I69634
I16787479
tp41
(lp42
I4983
aI11744
as(I266757
I268446761
tp43
(lp44
I6671
aI11860
as(I73730
I268442665
tp45
(lp46
I6602
aI11885
as(I69634
I268442665
tp47
(lp48
I6665
aI11736
as(I139523
I8423187
tp49
(lp50
I4824
aI11980
as(I69634
I134228773
tp51
(lp52
I5894
aI11721
as(I139523
I16812055
tp53
(lp54
I5135
aI11868
as(I139523
I268442665
tp55
(lp56
I6563
aI11826
as(I67115551
I268471337
tp57
(lp58
I7355
aI11398
as(I139523
I268446761
tp59
(lp60
I6628
aI11465
as(I69634
I279045
tp61
(lp62
I4136
aI12057
as(I135427
I268471337
tp63
(lp64
I6670
aI11834
as(I8398611
I268446761
tp65
(lp66
I7372
aI11803
as(I69634
I541447
tp67
(lp68
I4198
aI12197
as(I147715
I295429
tp69
(lp70
I4277
aI12067
as(I4199953
I16787479
tp71
(lp72
I5787
aI11713
as(I16783383
I268446761
tp73
(lp74
I7296
aI11581
as(I279045
I8406803
tp75
(lp76
I5300
aI11936
as(I98306
I16783383
tp77
(lp78
I4959
aI11792
as(I1065995
I2106637
tp79
(lp80
I4983
aI11808
as(I270853
I33560861
tp81
(lp82
I5606
aI11941
as(I2102541
I8398611
tp83
(lp84
I5563
aI11865
as(I67119647
I67144223
tp85
(lp86
I9175
aI11436
as(I2102541
I67119647
tp87
(lp88
I6011
aI11483
as(I529159
I16783383
tp89
(lp90
I5684
aI11822
as(I4212241
I134236965
tp91
(lp92
I6863
aI11792
as(I73730
I81922
tp93
(lp94
I5885
aI11718
as(I147715
I2114829
tp95
(lp96
I4883
aI11917
as(I1065995
I134236965
tp97
(lp98
I6547
aI11666
as(I2114829
I16812055
tp99
(lp100
I5663
aI11751
as(I67127839
I268446761
tp101
(lp102
I7445
aI11581
as(I2102541
I33564957
tp103
(lp104
I5794
aI11686
as(I279045
I16787479
tp105
(lp106
I5269
aI11960
as(I16783383
I268471337
tp107
(lp108
I7172
aI11464
as(I541447
I134253349
tp109
(lp110
I6216
aI11847
as(I266757
I557831
tp111
(lp112
I4667
aI12012
as(I266757
I67144223
tp113
(lp114
I5867
aI11951
as(I533255
I134236965
tp115
(lp116
I6313
aI11784
as(I16787479
I33589533
tp117
(lp118
I6440
aI11602
as(I164099
I1053707
tp119
(lp120
I4399
aI11862
as(I8423187
I33573149
tp121
(lp122
I6241
aI11727
as(I270853
I4199953
tp123
(lp124
I4799
aI12041
as(I1053707
I268471337
tp125
(lp126
I6751
aI11760
as(I8394515
I8423187
tp127
(lp128
I8223
aI11489
as(I81922
I8394515
tp129
(lp130
I4690
aI11872
as(I4212241
I67144223
tp131
(lp132
I6215
aI11713
as(I33573149
I134253349
tp133
(lp134
I7012
aI11661
as(I98306
I557831
tp135
(lp136
I4662
aI11957
as(I1053707
I1082379
tp137
(lp138
I7329
aI11594
as(I8406803
I134236965
tp139
(lp140
I6919
aI11577
as(I4204049
I268454953
tp141
(lp142
I7016
aI11729
as(I8394515
I33589533
tp143
(lp144
I6233
aI11747
as(I541447
I268454953
tp145
(lp146
I6981
aI11733
as(I8398611
I16795671
tp147
(lp148
I6094
aI11737
as(I541447
I2114829
tp149
(lp150
I5347
aI12024
as(I4228625
I67127839
tp151
(lp152
I6299
aI11738
as(I279045
I33589533
tp153
(lp154
I5490
aI11730
as(I147715
I33564957
tp155
(lp156
I5385
aI11951
as(I16812055
I268446761
tp157
(lp158
I7210
aI11581
as(I135427
I164099
tp159
(lp160
I6196
aI11560
as(I533255
I33589533
tp161
(lp162
I5464
aI11679
as(I266757
I279045
tp163
(lp164
I6441
aI11339
as(I33589533
I134236965
tp165
(lp166
I6941
aI11615
as(I4204049
I8423187
tp167
(lp168
I5677
aI11944
as(I33589533
I67115551
tp169
(lp170
I6666
aI11544
as(I2102541
I67144223
tp171
(lp172
I6056
aI11680
as(I541447
I1065995
tp173
(lp174
I5272
aI12030
as(I73730
I147715
tp175
(lp176
I3975
aI11987
as(I69634
I266757
tp177
(lp178
I4490
aI12039
as(I164099
I67119647
tp179
(lp180
I5746
aI11919
as(I2114829
I134236965
tp181
(lp182
I6699
aI11761
as(I4212241
I33589533
tp183
(lp184
I6104
aI11825
as(I557831
I1057803
tp185
(lp186
I4813
aI11904
as(I1053707
I67115551
tp187
(lp188
I6288
aI11690
as(I266757
I1053707
tp189
(lp190
I4965
aI11910
as(I33564957
I67119647
tp191
(lp192
I7024
aI11581
as(I270853
I33589533
tp193
(lp194
I5446
aI11827
as(I147715
I16783383
tp195
(lp196
I5194
aI12108
as(I1057803
I8423187
tp197
(lp198
I5353
aI11788
as(I2102541
I2131213
tp199
(lp200
I7470
aI11258
as(I73730
I295429
tp201
(lp202
I4121
aI12010
as(I557831
I8423187
tp203
(lp204
I5453
aI11797
as(I529159
I1065995
tp205
(lp206
I4945
aI12095
as(I139523
I67127839
tp207
(lp208
I5626
aI11682
as(I270853
I4212241
tp209
(lp210
I4869
aI12173
as(I98306
I135427
tp211
(lp212
I4007
aI11883
as(I98306
I16795671
tp213
(lp214
I5005
aI11888
as(I16787479
I134224677
tp215
(lp216
I6796
aI11615
as(I4228625
I268442665
tp217
(lp218
I7188
aI11956
as(I2106637
I16783383
tp219
(lp220
I5691
aI11734
as(I16812055
I33573149
tp221
(lp222
I6442
aI11658
as(I4204049
I134224677
tp223
(lp224
I6659
aI11849
as(I8406803
I16812055
tp225
(lp226
I6058
aI11709
as(I529159
I33589533
tp227
(lp228
I5546
aI11692
as(I73730
I2102541
tp229
(lp230
I4236
aI11874
as(I1053707
I134253349
tp231
(lp232
I6394
aI11780
as(I4204049
I33564957
tp233
(lp234
I6369
aI11757
as(I1057803
I268442665
tp235
(lp236
I6704
aI11865
as(I2102541
I134228773
tp237
(lp238
I6492
aI11681
as(I4212241
I8394515
tp239
(lp240
I5560
aI11622
as(I2114829
I8423187
tp241
(lp242
I5442
aI11794
as(I266757
I16787479
tp243
(lp244
I5151
aI11799
as(I1082379
I16812055
tp245
(lp246
I5881
aI11900
as(I295429
I533255
tp247
(lp248
I4597
aI11961
as(I270853
I67127839
tp249
(lp250
I5835
aI11786
as(I557831
I1053707
tp251
(lp252
I4759
aI11873
as(I2114829
I16783383
tp253
(lp254
I5658
aI11762
as(I147715
I4199953
tp255
(lp256
I4609
aI11932
as(I16795671
I33560861
tp257
(lp258
I6492
aI11775
as(I2102541
I8423187
tp259
(lp260
I5318
aI11690
as(I164099
I1065995
tp261
(lp262
I4343
aI12004
as(I33560861
I268454953
tp263
(lp264
I7315
aI11589
as(I295429
I4204049
tp265
(lp266
I4772
aI11908
as(I16783383
I134253349
tp267
(lp268
I6840
aI11504
as(I533255
I134224677
tp269
(lp270
I6218
aI11711
as(I8398611
I268454953
tp271
(lp272
I7005
aI11536
as(I533255
I8398611
tp273
(lp274
I5458
aI11884
as(I533255
I4204049
tp275
(lp276
I5338
aI11891
as(I4212241
I16795671
tp277
(lp278
I6222
aI11693
as(I98306
I268446761
tp279
(lp280
I6547
aI11821
as(I147715
I4228625
tp281
(lp282
I4739
aI12062
as(I33573149
I268442665
tp283
(lp284
I7342
aI11638
as(I33560861
I33589533
tp285
(lp286
I8734
aI11409
as(I533255
I268442665
tp287
(lp288
I6885
aI11872
as(I147715
I4212241
tp289
(lp290
I4855
aI11751
as(I164099
I266757
tp291
(lp292
I4252
aI11802
as(I135427
I33564957
tp293
(lp294
I5420
aI11934
as(I135427
I134228773
tp295
(lp296
I6049
aI11825
as(I147715
I268471337
tp297
(lp298
I6576
aI11976
as(I164099
I4204049
tp299
(lp300
I4535
aI12045
as(I1065995
I8398611
tp301
(lp302
I5083
aI11557
as(I2114829
I134228773
tp303
(lp304
I6573
aI11838
as(I266757
I541447
tp305
(lp306
I4701
aI12102
as(I8394515
I134236965
tp307
(lp308
I6645
aI11655
as(I8394515
I134253349
tp309
(lp310
I6701
aI11644
as(I533255
I16795671
tp311
(lp312
I5236
aI11776
as(I69634
I33589533
tp313
(lp314
I5365
aI11973
as(I33564957
I67144223
tp315
(lp316
I6746
aI11534
as(I1065995
I67119647
tp317
(lp318
I6038
aI11937
as(I33573149
I268454953
tp319
(lp320
I7517
aI11515
as(I2102541
I33560861
tp321
(lp322
I6117
aI11744
as(I266757
I268471337
tp323
(lp324
I6622
aI11772
as(I98306
I2106637
tp325
(lp326
I4191
aI12035
as(I295429
I33564957
tp327
(lp328
I5480
aI11807
as(I139523
I270853
tp329
(lp330
I4678
aI12070
as(I135427
I134236965
tp331
(lp332
I6104
aI11833
as(I81922
I266757
tp333
(lp334
I4188
aI11977
as(I529159
I1053707
tp335
(lp336
I5281
aI11957
as(I164099
I67115551
tp337
(lp338
I5682
aI11764
as(I147715
I270853
tp339
(lp340
I4375
aI12029
as(I8398611
I67127839
tp341
(lp342
I6463
aI11686
as(I139523
I4228625
tp343
(lp344
I4518
aI11893
as(I4204049
I33560861
tp345
(lp346
I5962
aI11645
as(I1053707
I33564957
tp347
(lp348
I5634
aI11919
as(I16787479
I134236965
tp349
(lp350
I6895
aI11599
as(I2131213
I8394515
tp351
(lp352
I5295
aI11545
as(I139523
I134253349
tp353
(lp354
I6039
aI11752
as(I1053707
I16783383
tp355
(lp356
I5865
aI11897
as(I2131213
I67115551
tp357
(lp358
I6110
aI11855
as(I1082379
I2114829
tp359
(lp360
I5040
aI11825
as(I4228625
I16812055
tp361
(lp362
I6102
aI11669
as(I1057803
I134236965
tp363
(lp364
I6311
aI11731
as(I529159
I557831
tp365
(lp366
I6874
aI11440
as(I8398611
I268442665
tp367
(lp368
I7132
aI11711
as(I1057803
I268454953
tp369
(lp370
I6625
aI11490
as(I4204049
I268442665
tp371
(lp372
I7019
aI11677
as(I266757
I134236965
tp373
(lp374
I6204
aI11987
as(I1053707
I8394515
tp375
(lp376
I5642
aI11894
as(I529159
I2106637
tp377
(lp378
I4871
aI11838
as(I270853
I67115551
tp379
(lp380
I5670
aI11775
as(I33573149
I33589533
tp381
(lp382
I8824
aI11499
as(I16783383
I16787479
tp383
(lp384
I8809
aI11677
as(I2131213
I268442665
tp385
(lp386
I6810
aI11637
as(I557831
I134236965
tp387
(lp388
I6297
aI11774
as(I16795671
I33573149
tp389
(lp390
I6791
aI11790
as(I529159
I67119647
tp391
(lp392
I5915
aI11880
as(I541447
I2106637
tp393
(lp394
I4814
aI11922
as(I73730
I98306
tp395
(lp396
I5942
aI11767
as(I266757
I33589533
tp397
(lp398
I5509
aI11719
as(I2106637
I8423187
tp399
(lp400
I5582
aI11868
as(I4212241
I16787479
tp401
(lp402
I5829
aI11702
as(I4212241
I67119647
tp403
(lp404
I6242
aI11548
as(I529159
I8406803
tp405
(lp406
I5017
aI11747
as(I67127839
I268454953
tp407
(lp408
I7629
aI11592
as(I4204049
I16783383
tp409
(lp410
I5836
aI11877
as(I4212241
I33573149
tp411
(lp412
I6285
aI11654
as(I1082379
I2106637
tp413
(lp414
I5167
aI12033
as(I557831
I268446761
tp415
(lp416
I6936
aI11970
as(I139523
I268454953
tp417
(lp418
I6615
aI11858
as(I1082379
I4199953
tp419
(lp420
I5236
aI11920
as(I147715
I33573149
tp421
(lp422
I5634
aI11694
as(I16812055
I268454953
tp423
(lp424
I7386
aI11786
as(I279045
I8398611
tp425
(lp426
I4805
aI11954
as(I1082379
I8394515
tp427
(lp428
I5291
aI11812
as(I529159
I533255
tp429
(lp430
I6932
aI11568
as(I33573149
I134228773
tp431
(lp432
I7070
aI11630
as(I8394515
I16787479
tp433
(lp434
I6110
aI11828
as(I69634
I139523
tp435
(lp436
I3979
aI12045
as(I98306
I33564957
tp437
(lp438
I5235
aI11860
as(I135427
I16783383
tp439
(lp440
I5494
aI11882
as(I270853
I1057803
tp441
(lp442
I4983
aI11867
as(I2131213
I268471337
tp443
(lp444
I7090
aI11555
as(I270853
I1082379
tp445
(lp446
I4694
aI11949
as(I135427
I4204049
tp447
(lp448
I4578
aI12034
as(I69634
I67144223
tp449
(lp450
I5622
aI11731
as(I4212241
I268471337
tp451
(lp452
I7028
aI11749
as(I164099
I4199953
tp453
(lp454
I4396
aI11742
as(I139523
I557831
tp455
(lp456
I4450
aI11888
as(I8394515
I67115551
tp457
(lp458
I6582
aI11627
as(I279045
I1065995
tp459
(lp460
I5009
aI11951
as(I279045
I33573149
tp461
(lp462
I5717
aI11690
as(I135427
I134224677
tp463
(lp464
I6442
aI11888
as(I134253349
I268454953
tp465
(lp466
I7588
aI11583
as(I541447
I1053707
tp467
(lp468
I4892
aI12020
as(I164099
I67127839
tp469
(lp470
I5816
aI11843
as(I135427
I270853
tp471
(lp472
I4307
aI12013
as(I67115551
I268446761
tp473
(lp474
I7437
aI11558
as(I81922
I16787479
tp475
(lp476
I5054
aI11913
as(I2106637
I4228625
tp477
(lp478
I5369
aI11850
as(I134253349
I268442665
tp479
(lp480
I7534
aI11414
as(I266757
I8394515
tp481
(lp482
I5332
aI11978
as(I533255
I16783383
tp483
(lp484
I5224
aI11961
as(I1053707
I2114829
tp485
(lp486
I5058
aI11744
as(I8423187
I67127839
tp487
(lp488
I6555
aI11672
as(I1053707
I1065995
tp489
(lp490
I7266
aI11511
as(I4212241
I4228625
tp491
(lp492
I7871
aI11336
as(I1053707
I134228773
tp493
(lp494
I6415
aI11767
as(I4199953
I33560861
tp495
(lp496
I6251
aI11670
as(I1053707
I268446761
tp497
(lp498
I6696
aI11732
as(I2102541
I134236965
tp499
(lp500
I6442
aI11629
as(I279045
I134228773
tp501
(lp502
I6092
aI11660
as(I557831
I2131213
tp503
(lp504
I5372
aI12296
as(I73730
I16795671
tp505
(lp506
I4992
aI11779
as(I147715
I279045
tp507
(lp508
I4779
aI11918
as(I295429
I67127839
tp509
(lp510
I5753
aI11918
as(I2102541
I67115551
tp511
(lp512
I6319
aI11686
as(I164099
I279045
tp513
(lp514
I4244
aI11863
as(I1057803
I33573149
tp515
(lp516
I5691
aI11849
as(I147715
I1057803
tp517
(lp518
I4395
aI11919
as(I2114829
I268471337
tp519
(lp520
I6848
aI11659
as(I295429
I4212241
tp521
(lp522
I4713
aI11795
as(I279045
I533255
tp523
(lp524
I4653
aI12057
as(I268442665
I268471337
tp525
(lp526
I9699
aI11422
as(I73730
I8406803
tp527
(lp528
I4649
aI11807
as(I2131213
I67144223
tp529
(lp530
I6398
aI11743
as(I533255
I8423187
tp531
(lp532
I5054
aI11892
as(I139523
I33560861
tp533
(lp534
I5354
aI11736
as(I4228625
I16787479
tp535
(lp536
I6009
aI12000
as(I73730
I268446761
tp537
(lp538
I6597
aI11603
as(I147715
I4204049
tp539
(lp540
I4625
aI12080
as(I2114829
I4228625
tp541
(lp542
I5413
aI11786
as(I73730
I67144223
tp543
(lp544
I5622
aI11855
as(I73730
I1065995
tp545
(lp546
I4151
aI11953
as(I98306
I33589533
tp547
(lp548
I5594
aI11833
as(I73730
I2114829
tp549
(lp550
I4283
aI12143
as(I8398611
I8406803
tp551
(lp552
I8045
aI11230
as(I135427
I33589533
tp553
(lp554
I5326
aI11904
as(I1065995
I8423187
tp555
(lp556
I5337
aI11812
as(I1082379
I4212241
tp557
(lp558
I5204
aI12003
as(I81922
I147715
tp559
(lp560
I4313
aI11795
as(I541447
I16812055
tp561
(lp562
I5127
aI11670
as(I8398611
I67144223
tp563
(lp564
I6394
aI11544
as(I2102541
I268471337
tp565
(lp566
I6864
aI11647
as(I139523
I2114829
tp567
(lp568
I4631
aI11948
as(I1082379
I67127839
tp569
(lp570
I5982
aI11711
as(I33589533
I268446761
tp571
(lp572
I7468
aI11775
as(I67119647
I134224677
tp573
(lp574
I7030
aI11537
as(I16812055
I67127839
tp575
(lp576
I6588
aI11650
as(I2114829
I33564957
tp577
(lp578
I5749
aI11740
as(I8398611
I33589533
tp579
(lp580
I6085
aI11559
as(I135427
I67127839
tp581
(lp582
I5728
aI11815
as(I33564957
I134236965
tp583
(lp584
I6912
aI11599
as(I147715
I134224677
tp585
(lp586
I6059
aI11878
as(I557831
I33560861
tp587
(lp588
I5519
aI11680
as(I16795671
I67119647
tp589
(lp590
I6678
aI11721
as(I73730
I4212241
tp591
(lp592
I4539
aI12154
as(I266757
I67115551
tp593
(lp594
I6280
aI11927
as(I8406803
I67144223
tp595
(lp596
I6412
aI11679
as(I8398611
I16787479
tp597
(lp598
I6189
aI11418
as(I16783383
I16812055
tp599
(lp600
I8400
aI11249
as(I16812055
I134236965
tp601
(lp602
I6951
aI11508
as(I134228773
I268471337
tp603
(lp604
I7448
aI11408
as(I2131213
I268454953
tp605
(lp606
I6961
aI11726
as(I2102541
I4228625
tp607
(lp608
I5346
aI11768
as(I295429
I1057803
tp609
(lp610
I4666
aI12127
as(I295429
I8398611
tp611
(lp612
I4949
aI11919
as(I2106637
I16795671
tp613
(lp614
I5830
aI12049
as(I164099
I529159
tp615
(lp616
I4482
aI12182
as(I1082379
I33560861
tp617
(lp618
I5669
aI11784
as(I533255
I4199953
tp619
(lp620
I5039
aI12015
as(I67144223
I134228773
tp621
(lp622
I6959
aI11466
as(I2106637
I134253349
tp623
(lp624
I6492
aI11708
as(I4204049
I8406803
tp625
(lp626
I5589
aI11829
as(I73730
I16783383
tp627
(lp628
I5082
aI11902
as(I266757
I134228773
tp629
(lp630
I6139
aI11774
as(I135427
I8398611
tp631
(lp632
I4911
aI12038
as(I529159
I2131213
tp633
(lp634
I5069
aI11986
as(I533255
I16812055
tp635
(lp636
I5355
aI12136
as(I1065995
I134253349
tp637
(lp638
I6173
aI11596
as(I8398611
I67119647
tp639
(lp640
I6775
aI11704
as(I2131213
I8423187
tp641
(lp642
I5785
aI11800
as(I147715
I557831
tp643
(lp644
I4443
aI12080
as(I2131213
I4199953
tp645
(lp646
I5433
aI11857
as(I8398611
I33564957
tp647
(lp648
I6309
aI11499
as(I1082379
I268442665
tp649
(lp650
I6673
aI11656
as(I98306
I1057803
tp651
(lp652
I4195
aI11962
as(I33573149
I67144223
tp653
(lp654
I6794
aI11598
as(I4212241
I67127839
tp655
(lp656
I6368
aI11522
as(I16795671
I134253349
tp657
(lp658
I6845
aI11583
as(I541447
I8394515
tp659
(lp660
I5195
aI12049
as(I541447
I4199953
tp661
(lp662
I5095
aI12093
as(I69634
I67127839
tp663
(lp664
I5587
aI11780
as(I69634
I268454953
tp665
(lp666
I6426
aI11648
as(I2102541
I67127839
tp667
(lp668
I6047
aI11732
as(I279045
I2106637
tp669
(lp670
I4659
aI11985
as(I67127839
I67144223
tp671
(lp672
I9075
aI11370
as(I33560861
I67144223
tp673
(lp674
I6868
aI11775
as(I69634
I1053707
tp675
(lp676
I4502
aI11842
as(I98306
I1053707
tp677
(lp678
I4090
aI11973
as(I69634
I16783383
tp679
(lp680
I5351
aI11922
as(I8394515
I268442665
tp681
(lp682
I7256
aI11578
as(I2102541
I2106637
tp683
(lp684
I7455
aI11383
as(I164099
I33564957
tp685
(lp686
I5416
aI11937
as(I16783383
I268442665
tp687
(lp688
I7375
aI11492
as(I135427
I147715
tp689
(lp690
I6109
aI11431
as(I1053707
I8406803
tp691
(lp692
I5332
aI11864
as(I266757
I295429
tp693
(lp694
I6653
aI11586
as(I33589533
I134253349
tp695
(lp696
I7130
aI11438
as(I8394515
I16812055
tp697
(lp698
I5967
aI11674
as(I73730
I135427
tp699
(lp700
I3983
aI12002
as(I73730
I33564957
tp701
(lp702
I5824
aI11986
as(I164099
I2102541
tp703
(lp704
I4472
aI12036
as(I529159
I4228625
tp705
(lp706
I5010
aI11813
as(I98306
I4199953
tp707
(lp708
I4443
aI11654
as(I1053707
I67127839
tp709
(lp710
I6047
aI11716
as(I33560861
I268446761
tp711
(lp712
I7172
aI11422
as(I98306
I4228625
tp713
(lp714
I4820
aI11860
as(I266757
I2131213
tp715
(lp716
I4668
aI11922
as(I81922
I139523
tp717
(lp718
I3925
aI11980
as(I33564957
I268442665
tp719
(lp720
I7385
aI11761
as(I270853
I268446761
tp721
(lp722
I7038
aI11843
as(I139523
I16787479
tp723
(lp724
I5508
aI11852
as(I295429
I33573149
tp725
(lp726
I5360
aI11797
as(I164099
I8394515
tp727
(lp728
I4869
aI11983
as(I81922
I533255
tp729
(lp730
I4312
aI12076
as(I73730
I134228773
tp731
(lp732
I6170
aI11727
as(I164099
I16783383
tp733
(lp734
I5035
aI11830
as(I81922
I16812055
tp735
(lp736
I5061
aI11902
as(I73730
I279045
tp737
(lp738
I4092
aI12016
as(I4204049
I268471337
tp739
(lp740
I6972
aI11697
as(I8394515
I268454953
tp741
(lp742
I7053
aI11579
as(I73730
I541447
tp743
(lp744
I4306
aI12133
as(I139523
I266757
tp745
(lp746
I4359
aI11993
as(I8394515
I67127839
tp747
(lp748
I6424
aI11540
as(I98306
I268471337
tp749
(lp750
I6663
aI11665
as(I98306
I16812055
tp751
(lp752
I5371
aI11794
as(I134253349
I268471337
tp753
(lp754
I7415
aI11199
as(I4199953
I268446761
tp755
(lp756
I6869
aI11558
as(I2102541
I4199953
tp757
(lp758
I5724
aI11975
as(I67115551
I268442665
tp759
(lp760
I7653
aI11530
as(I4199953
I8423187
tp761
(lp762
I5761
aI11900
as(I266757
I4228625
tp763
(lp764
I4831
aI11902
as(I16783383
I33560861
tp765
(lp766
I6604
aI11524
as(I81922
I529159
tp767
(lp768
I4244
aI12126
as(I4228625
I8394515
tp769
(lp770
I5675
aI11644
as(I295429
I134253349
tp771
(lp772
I6567
aI11858
as(I557831
I2106637
tp773
(lp774
I4833
aI11926
as(I270853
I557831
tp775
(lp776
I4663
aI12088
as(I270853
I67144223
tp777
(lp778
I5790
aI11864
as(I16783383
I67115551
tp779
(lp780
I6990
aI11597
as(I33564957
I33573149
tp781
(lp782
I8654
aI11332
as(I16812055
I33560861
tp783
(lp784
I6407
aI11733
as(I2106637
I268471337
tp785
(lp786
I6643
aI11447
as(I270853
I4228625
tp787
(lp788
I4812
aI12011
as(I4212241
I134253349
tp789
(lp790
I6578
aI11713
as(I98306
I4212241
tp791
(lp792
I4529
aI11941
as(I557831
I67144223
tp793
(lp794
I6322
aI11862
as(I1057803
I134224677
tp795
(lp796
I6215
aI11530
as(I69634
I16812055
tp797
(lp798
I5051
aI12013
as(I81922
I541447
tp799
(lp800
I4699
aI12138
as(I8394515
I67119647
tp801
(lp802
I6398
aI11505
as(I4204049
I16787479
tp803
(lp804
I6192
aI11790
as(I67119647
I134228773
tp805
(lp806
I7328
aI11620
as(I164099
I4228625
tp807
(lp808
I4799
aI11738
as(I268442665
I268446761
tp809
(lp810
I9647
aI11350
as(I533255
I67115551
tp811
(lp812
I5833
aI11725
as(I147715
I134236965
tp813
(lp814
I6424
aI11779
as(I98306
I1065995
tp815
(lp816
I4206
aI12066
as(I98306
I2114829
tp817
(lp818
I4210
aI11674
as(I147715
I8406803
tp819
(lp820
I5048
aI11867
as(I16795671
I67127839
tp821
(lp822
I6929
aI11691
as(I98306
I67115551
tp823
(lp824
I5682
aI11766
as(I541447
I33573149
tp825
(lp826
I5829
aI11715
as(I16795671
I268442665
tp827
(lp828
I7278
aI11831
as(I139523
I164099
tp829
(lp830
I6162
aI11438
as(I67127839
I134228773
tp831
(lp832
I7027
aI11514
as(I270853
I279045
tp833
(lp834
I6393
aI11276
as(I33560861
I134253349
tp835
(lp836
I6907
aI11577
as(I1082379
I4204049
tp837
(lp838
I5244
aI11999
as(I8423187
I134224677
tp839
(lp840
I6860
aI11877
as(I541447
I16787479
tp841
(lp842
I5379
aI11979
as(I69634
I33573149
tp843
(lp844
I5184
aI11619
as(I2102541
I134224677
tp845
(lp846
I6663
aI11752
as(I33564957
I67127839
tp847
(lp848
I6767
aI11587
as(I147715
I2131213
tp849
(lp850
I4510
aI12145
as(I1082379
I67119647
tp851
(lp852
I6046
aI11727
as(I8406803
I67127839
tp853
(lp854
I6840
aI11812
as(I33564957
I268446761
tp855
(lp856
I7658
aI11721
as(I557831
I1082379
tp857
(lp858
I5223
aI11900
as(I2114829
I33573149
tp859
(lp860
I6079
aI11786
as(I135427
I295429
tp861
(lp862
I4374
aI12042
as(I139523
I529159
tp863
(lp864
I4364
aI11858
as(I33560861
I268442665
tp865
(lp866
I7434
aI11505
as(I164099
I8406803
tp867
(lp868
I4831
aI11923
as(I2131213
I8398611
tp869
(lp870
I5471
aI11818
as(I295429
I33560861
tp871
(lp872
I5384
aI11673
as(I147715
I16812055
tp873
(lp874
I4990
aI11888
as(I164099
I2114829
tp875
(lp876
I4420
aI11849
as(I2106637
I2131213
tp877
(lp878
I7548
aI11374
as(I98306
I266757
tp879
(lp880
I4076
aI11797
as(I1082379
I134228773
tp881
(lp882
I6418
aI11784
as(I8423187
I268446761
tp883
(lp884
I7022
aI11549
as(I164099
I268454953
tp885
(lp886
I6496
aI11667
as(I69634
I164099
tp887
(lp888
I3952
aI11862
as(I8423187
I67119647
tp889
(lp890
I6448
aI11598
as(I81922
I16795671
tp891
(lp892
I5437
aI11922
as(I81922
I268442665
tp893
(lp894
I6501
aI11798
as(I164099
I295429
tp895
(lp896
I4771
aI11834
as(I295429
I8394515
tp897
(lp898
I4854
aI12020
as(I279045
I67127839
tp899
(lp900
I6127
aI11942
as(I134228773
I268446761
tp901
(lp902
I7733
aI11519
as(I529159
I268471337
tp903
(lp904
I6857
aI12010
as(I4228625
I268454953
tp905
(lp906
I6827
aI11560
as(I134228773
I268442665
tp907
(lp908
I7454
aI11542
as(I33589533
I67127839
tp909
(lp910
I6672
aI11492
as(I533255
I2102541
tp911
(lp912
I4971
aI12175
as(I67127839
I268442665
tp913
(lp914
I7278
aI11491
as(I139523
I16795671
tp915
(lp916
I5119
aI11896
as(I2102541
I16783383
tp917
(lp918
I5950
aI11723
as(I1082379
I2131213
tp919
(lp920
I5470
aI11969
as(I1057803
I134253349
tp921
(lp922
I6430
aI11890
as(I1053707
I4212241
tp923
(lp924
I5139
aI11908
as(I1082379
I4228625
tp925
(lp926
I5565
aI11854
as(I4212241
I8423187
tp927
(lp928
I5748
aI11671
as(I164099
I268442665
tp929
(lp930
I6550
aI11807
as(I295429
I16795671
tp931
(lp932
I5242
aI11806
as(I541447
I268442665
tp933
(lp934
I6783
aI11760
as(I135427
I8394515
tp935
(lp936
I5144
aI11774
as(I279045
I529159
tp937
(lp938
I4678
aI12214
as(I2106637
I268442665
tp939
(lp940
I6817
aI11721
as(I73730
I2131213
tp941
(lp942
I4306
aI11980
as(I69634
I8394515
tp943
(lp944
I5245
aI12198
as(I147715
I533255
tp945
(lp946
I4462
aI12041
as(I541447
I134236965
tp947
(lp948
I6614
aI11759
as(I16795671
I33589533
tp949
(lp950
I6499
aI11764
as(I139523
I1053707
tp951
(lp952
I4352
aI11840
as(I8406803
I33564957
tp953
(lp954
I6254
aI11850
as(I279045
I4199953
tp955
(lp956
I4807
aI12060
as(I533255
I4228625
tp957
(lp958
I4954
aI11921
as(I529159
I67144223
tp959
(lp960
I6036
aI11859
as(I4228625
I67119647
tp961
(lp962
I6392
aI11927
as(I98306
I67127839
tp963
(lp964
I5580
aI11718
as(I8423187
I16783383
tp965
(lp966
I6143
aI11706
as(I81922
I134236965
tp967
(lp968
I6123
aI11574
as(I557831
I268454953
tp969
(lp970
I6651
aI11535
as(I139523
I4199953
tp971
(lp972
I4502
aI11963
as(I533255
I268471337
tp973
(lp974
I6793
aI11806
as(I1082379
I8423187
tp975
(lp976
I5656
aI11990
as(I16812055
I134253349
tp977
(lp978
I7143
aI11656
as(I4199953
I16795671
tp979
(lp980
I5846
aI11643
as(I134224677
I268446761
tp981
(lp982
I7340
aI11286
as(I16795671
I268454953
tp983
(lp984
I7378
aI11557
as(I270853
I134236965
tp985
(lp986
I6271
aI11894
as(I67144223
I134224677
tp987
(lp988
I7093
aI11720
as(I135427
I1057803
tp989
(lp990
I4462
aI11989
as(I33589533
I134228773
tp991
(lp992
I7002
aI11570
as(I268442665
I268454953
tp993
(lp994
I9724
aI11430
as(I8398611
I134253349
tp995
(lp996
I6605
aI11464
as(I529159
I16787479
tp997
(lp998
I5215
aI11733
as(I69634
I33560861
tp999
(lp1000
I5663
aI11843
as(I73730
I134236965
tp1001
(lp1002
I5911
aI11843
as(I33564957
I67115551
tp1003
(lp1004
I6725
aI11595
as(I1053707
I268442665
tp1005
(lp1006
I6915
aI11799
as(I529159
I541447
tp1007
(lp1008
I7002
aI11603
as(I16787479
I67119647
tp1009
(lp1010
I6899
aI11572
as(I557831
I67127839
tp1011
(lp1012
I5974
aI11919
as(I529159
I33573149
tp1013
(lp1014
I5626
aI11869
as(I4199953
I134253349
tp1015
(lp1016
I6552
aI11728
as(I270853
I533255
tp1017
(lp1018
I5090
aI11974
as(I67115551
I268454953
tp1019
(lp1020
I7377
aI11524
as(I2114829
I33560861
tp1021
(lp1022
I5765
aI11660
as(I270853
I268471337
tp1023
(lp1024
I6637
aI11805
as(I295429
I67119647
tp1025
(lp1026
I5773
aI11768
as(I8423187
I268442665
tp1027
(lp1028
I7181
aI11899
as(I135427
I268446761
tp1029
(lp1030
I6633
aI11859
as(I8423187
I16795671
tp1031
(lp1032
I6062
aI11837
as(I73730
I134253349
tp1033
(lp1034
I5908
aI11714
as(I139523
I134236965
tp1035
(lp1036
I6038
aI11765
as(I81922
I295429
tp1037
(lp1038
I4093
aI11886
as(I8406803
I268446761
tp1039
(lp1040
I7068
aI11792
as(I16783383
I67144223
tp1041
(lp1042
I6665
aI11662
as(I164099
I67144223
tp1043
(lp1044
I5970
aI11756
as(I147715
I16795671
tp1045
(lp1046
I5479
aI11749
as(I2131213
I134224677
tp1047
(lp1048
I6391
aI11687
as(I98306
I16787479
tp1049
(lp1050
I4889
aI11851
as(I16795671
I134224677
tp1051
(lp1052
I6899
aI11552
as(I16783383
I67127839
tp1053
(lp1054
I6625
aI11642
as(I4199953
I268471337
tp1055
(lp1056
I6875
aI11499
as(I67115551
I67127839
tp1057
(lp1058
I9097
aI11411
as(I1082379
I16783383
tp1059
(lp1060
I5485
aI11811
as(I164099
I134253349
tp1061
(lp1062
I6258
aI11689
as(I2106637
I67127839
tp1063
(lp1064
I6070
aI11832
as(I69634
I4199953
tp1065
(lp1066
I4865
aI11851
as(I98306
I2102541
tp1067
(lp1068
I4276
aI12159
as(I4228625
I134253349
tp1069
(lp1070
I6850
aI11729
as(I33573149
I134224677
tp1071
(lp1072
I7088
aI11727
as(I1053707
I2131213
tp1073
(lp1074
I5143
aI11939
as(I1057803
I8406803
tp1075
(lp1076
I5368
aI11965
as(I164099
I33589533
tp1077
(lp1078
I5657
aI11717
as(I557831
I33573149
tp1079
(lp1080
I5514
aI11689
as(I4204049
I33589533
tp1081
(lp1082
I5988
aI11676
as(I4204049
I33573149
tp1083
(lp1084
I5980
aI11491
as(I1065995
I268442665
tp1085
(lp1086
I6777
aI11842
as(I295429
I134228773
tp1087
(lp1088
I6093
aI11658
as(I295429
I268446761
tp1089
(lp1090
I6555
aI11692
as(I81922
I67127839
tp1091
(lp1092
I5932
aI11740
as(I533255
I2106637
tp1093
(lp1094
I5148
aI11836
as(I1057803
I16783383
tp1095
(lp1096
I5518
aI11791
as(I279045
I541447
tp1097
(lp1098
I4951
aI11849
as(I147715
I8394515
tp1099
(lp1100
I4681
aI11680
as(I98306
I67119647
tp1101
(lp1102
I5503
aI11688
as(I541447
I33560861
tp1103
(lp1104
I5565
aI11903
as(I135427
I533255
tp1105
(lp1106
I4483
aI12101
as(I529159
I134253349
tp1107
(lp1108
I6367
aI11905
as(I16783383
I33573149
tp1109
(lp1110
I6491
aI11728
as(I67119647
I268471337
tp1111
(lp1112
I7411
aI11475
as(I164099
I1057803
tp1113
(lp1114
I4431
aI12116
as(I2131213
I16783383
tp1115
(lp1116
I5650
aI11724
as(I533255
I67119647
tp1117
(lp1118
I6149
aI11704
as(I81922
I4204049
tp1119
(lp1120
I4500
aI11907
as(I81922
I8398611
tp1121
(lp1122
I4762
aI11988
as(I8398611
I16812055
tp1123
(lp1124
I6073
aI11871
as(I33560861
I33564957
tp1125
(lp1126
I8777
aI11394
as(I533255
I8406803
tp1127
(lp1128
I5075
aI11903
as(I1082379
I67115551
tp1129
(lp1130
I6002
aI11721
as(I4204049
I16812055
tp1131
(lp1132
I5780
aI11594
as(I16812055
I67115551
tp1133
(lp1134
I6618
aI11676
as(I270853
I2102541
tp1135
(lp1136
I4570
aI11850
as(I1057803
I33564957
tp1137
(lp1138
I5920
aI11612
as(I4228625
I33564957
tp1139
(lp1140
I6076
aI11617
as(I81922
I1057803
tp1141
(lp1142
I4151
aI11853
as(I33560861
I67127839
tp1143
(lp1144
I6554
aI11369
as(I295429
I1053707
tp1145
(lp1146
I4661
aI12087
as(I135427
I1053707
tp1147
(lp1148
I4817
aI11984
as(I135427
I33573149
tp1149
(lp1150
I5350
aI11912
as(I73730
I164099
tp1151
(lp1152
I4066
aI12022
as(I164099
I1082379
tp1153
(lp1154
I4738
aI11899
as(I67144223
I134236965
tp1155
(lp1156
I7097
aI11451
as(I81922
I33573149
tp1157
(lp1158
I5620
aI11870
as(I33560861
I134228773
tp1159
(lp1160
I6933
aI11553
as(I8398611
I8423187
tp1161
(lp1162
I8134
aI11390
as(I73730
I139523
tp1163
(lp1164
I4352
aI11897
as(I541447
I16795671
tp1165
(lp1166
I5656
aI11970
as(I529159
I268454953
tp1167
(lp1168
I6612
aI11650
as(I33560861
I67115551
tp1169
(lp1170
I6963
aI11639
as(I147715
I2106637
tp1171
(lp1172
I4371
aI11789
as(I533255
I33564957
tp1173
(lp1174
I6095
aI12071
as(I533255
I557831
tp1175
(lp1176
I6667
aI11286
as(I1065995
I67127839
tp1177
(lp1178
I6243
aI11696
as(I73730
I266757
tp1179
(lp1180
I4195
aI12001
as(I8423187
I268454953
tp1181
(lp1182
I7090
aI11663
as(I1065995
I8406803
tp1183
(lp1184
I5699
aI11978
as(I8406803
I16783383
tp1185
(lp1186
I5953
aI11664
as(I8394515
I8398611
tp1187
(lp1188
I8238
aI11474
as(I2131213
I33564957
tp1189
(lp1190
I5753
aI11569
as(I73730
I533255
tp1191
(lp1192
I4584
aI11946
as(I279045
I268442665
tp1193
(lp1194
I6488
aI11721
as(I33573149
I268471337
tp1195
(lp1196
I7162
aI11336
as(I4212241
I134224677
tp1197
(lp1198
I6430
aI11657
as(I266757
I268442665
tp1199
(lp1200
I6890
aI11724
as(I147715
I8398611
tp1201
(lp1202
I4859
aI11948
as(I147715
I268454953
tp1203
(lp1204
I6907
aI11795
as(I98306
I134228773
tp1205
(lp1206
I5995
aI11896
as(I81922
I134224677
tp1207
(lp1208
I5956
aI11809
as(I147715
I16787479
tp1209
(lp1210
I5078
aI11822
as(I266757
I67119647
tp1211
(lp1212
I5661
aI11678
as(I164099
I134224677
tp1213
(lp1214
I6092
aI11795
as(I81922
I2131213
tp1215
(lp1216
I4316
aI12009
as(I557831
I134224677
tp1217
(lp1218
I6292
aI11844
as(I16812055
I67119647
tp1219
(lp1220
I6428
aI11424
as(I147715
I268446761
tp1221
(lp1222
I6696
aI11998
as(I541447
I268446761
tp1223
(lp1224
I6764
aI11873
as(I67119647
I268446761
tp1225
(lp1226
I7735
aI11662
as(I16795671
I134236965
tp1227
(lp1228
I7035
aI11418
as(I1065995
I2131213
tp1229
(lp1230
I5186
aI11830
as(I134236965
I268446761
tp1231
(lp1232
I7273
aI11312
as(I1065995
I2114829
tp1233
(lp1234
I5462
aI12018
as(I1065995
I16812055
tp1235
(lp1236
I5580
aI11986
as(I2106637
I67115551
tp1237
(lp1238
I6060
aI11656
as(I98306
I541447
tp1239
(lp1240
I4240
aI11917
as(I4212241
I268446761
tp1241
(lp1242
I6841
aI11604
as(I8406803
I134253349
tp1243
(lp1244
I6548
aI11366
as(I81922
I4199953
tp1245
(lp1246
I4463
aI11992
as(I1057803
I2114829
tp1247
(lp1248
I5113
aI11884
as(I2114829
I16787479
tp1249
(lp1250
I5710
aI11931
as(I1057803
I1065995
tp1251
(lp1252
I7245
aI11334
as(I1057803
I134228773
tp1253
(lp1254
I6591
aI11735
as(I279045
I2131213
tp1255
(lp1256
I4633
aI11932
as(I2114829
I268454953
tp1257
(lp1258
I7146
aI11786
as(I295429
I8423187
tp1259
(lp1260
I5305
aI11971
as(I1057803
I268446761
tp1261
(lp1262
I6907
aI11637
as(I2106637
I134236965
tp1263
(lp1264
I6535
aI11711
as(I4212241
I8398611
tp1265
(lp1266
I5601
aI11596
as(I270853
I16812055
tp1267
(lp1268
I5182
aI11752
as(I1065995
I134224677
tp1269
(lp1270
I6373
aI11716
as(I529159
I2114829
tp1271
(lp1272
I4824
aI11865
as(I33564957
I134224677
tp1273
(lp1274
I6954
aI11577
as(I69634
I4228625
tp1275
(lp1276
I4477
aI11742
as(I4228625
I33560861
tp1277
(lp1278
I5927
aI11481
as(I8398611
I268471337
tp1279
(lp1280
I7089
aI11676
as(I147715
I541447
tp1281
(lp1282
I4812
aI11966
as(I557831
I134228773
tp1283
(lp1284
I6228
aI11654
as(I16795671
I33564957
tp1285
(lp1286
I6470
aI11819
as(I2114829
I67127839
tp1287
(lp1288
I6203
aI11495
as(I8406803
I33589533
tp1289
(lp1290
I6205
aI11668
as(I529159
I67127839
tp1291
(lp1292
I5849
aI11842
as(I69634
I4204049
tp1293
(lp1294
I4531
aI12016
as(I98306
I33573149
tp1295
(lp1296
I5338
aI11745
as(I134253349
I268446761
tp1297
(lp1298
I7289
aI11282
as(I557831
I16783383
tp1299
(lp1300
I5249
aI11833
as(I4204049
I134253349
tp1301
(lp1302
I6525
aI11636
as(I4204049
I67119647
tp1303
(lp1304
I6471
aI11571
as(I557831
I8394515
tp1305
(lp1306
I5028
aI11797
as(I557831
I4199953
tp1307
(lp1308
I5029
aI11977
as(I4212241
I16783383
tp1309
(lp1310
I5842
aI11744
as(I295429
I2106637
tp1311
(lp1312
I4614
aI11871
as(I69634
I1057803
tp1313
(lp1314
I4180
aI11894
as(I2114829
I4212241
tp1315
(lp1316
I5635
aI11711
as(I69634
I2106637
tp1317
(lp1318
I4196
aI11780
as(I1065995
I67144223
tp1319
(lp1320
I5958
aI11660
as(I135427
I33560861
tp1321
(lp1322
I5763
aI11768
as(I164099
I33573149
tp1323
(lp1324
I5465
aI11874
as(I67115551
I134236965
tp1325
(lp1326
I7097
aI11573
as(I73730
I557831
tp1327
(lp1328
I4166
aI11936
as(I33564957
I134228773
tp1329
(lp1330
I7091
aI11462
as(I1057803
I4199953
tp1331
(lp1332
I5258
aI12047
as(I279045
I8394515
tp1333
(lp1334
I4922
aI11859
as(I529159
I16812055
tp1335
(lp1336
I5326
aI11862
as(I266757
I16783383
tp1337
(lp1338
I5449
aI11755
as(I2131213
I33589533
tp1339
(lp1340
I6219
aI11842
as(I135427
I2106637
tp1341
(lp1342
I4361
aI11819
as(I164099
I541447
tp1343
(lp1344
I4430
aI12149
as(I135427
I8406803
tp1345
(lp1346
I4831
aI11950
as(I1057803
I67115551
tp1347
(lp1348
I5945
aI11733
as(I268446761
I268471337
tp1349
(lp1350
I9786
aI11546
as(I139523
I67115551
tp1351
(lp1352
I5676
aI11847
as(I69634
I67115551
tp1353
(lp1354
I5882
aI11693
as(I4204049
I134228773
tp1355
(lp1356
I6789
aI11787
as(I279045
I268454953
tp1357
(lp1358
I6928
aI11901
as(I134236965
I268454953
tp1359
(lp1360
I7656
aI11508
as(I16787479
I268446761
tp1361
(lp1362
I7343
aI11437
as(I8398611
I33560861
tp1363
(lp1364
I6249
aI11679
as(I69634
I134253349
tp1365
(lp1366
I5962
aI11870
as(I279045
I1057803
tp1367
(lp1368
I4603
aI11860
as(I1053707
I4228625
tp1369
(lp1370
I5175
aI11912
as(I279045
I33564957
tp1371
(lp1372
I5679
aI11994
as(I135427
I16787479
tp1373
(lp1374
I5025
aI11802
as(I1057803
I2106637
tp1375
(lp1376
I5339
aI11786
as(I164099
I134236965
tp1377
(lp1378
I6104
aI11765
as(I67119647
I134253349
tp1379
(lp1380
I7134
aI11664
as(I541447
I134228773
tp1381
(lp1382
I6218
aI11738
as(I73730
I67115551
tp1383
(lp1384
I5619
aI11956
as(I2131213
I33573149
tp1385
(lp1386
I5762
aI11611
as(I135427
I279045
tp1387
(lp1388
I4301
aI11955
as(I8406803
I67115551
tp1389
(lp1390
I6469
aI11604
as(I147715
I134228773
tp1391
(lp1392
I6032
aI11723
as(I16787479
I134253349
tp1393
(lp1394
I6835
aI11603
as(I2131213
I4212241
tp1395
(lp1396
I5303
aI11638
as(I557831
I16795671
tp1397
(lp1398
I5195
aI11879
as(I2131213
I8406803
tp1399
(lp1400
I5546
aI11744
as(I279045
I67115551
tp1401
(lp1402
I5864
aI11794
as(I1053707
I16795671
tp1403
(lp1404
I5480
aI11730
as(I2114829
I67144223
tp1405
(lp1406
I6321
aI12037
as(I270853
I8398611
tp1407
(lp1408
I5180
aI11848
as(I2131213
I16795671
tp1409
(lp1410
I5688
aI11784
as(I270853
I134224677
tp1411
(lp1412
I6152
aI11666
as(I295429
I67144223
tp1413
(lp1414
I6044
aI11760
as(I295429
I2102541
tp1415
(lp1416
I4687
aI12026
as(I147715
I67144223
tp1417
(lp1418
I5610
aI11838
as(I16783383
I268454953
tp1419
(lp1420
I7317
aI11714
as(I1053707
I1057803
tp1421
(lp1422
I7259
aI11427
as(I4228625
I33573149
tp1423
(lp1424
I6042
aI11589
as(I1057803
I2102541
tp1425
(lp1426
I4965
aI11785
as(I4199953
I4204049
tp1427
(lp1428
I7807
aI11395
as(I2106637
I134224677
tp1429
(lp1430
I6455
aI11675
as(I266757
I1065995
tp1431
(lp1432
I4667
aI12039
as(I4199953
I8398611
tp1433
(lp1434
I5553
aI11599
as(I8394515
I16795671
tp1435
(lp1436
I5985
aI11686
as(I270853
I134228773
tp1437
(lp1438
I6313
aI11546
as(I98306
I8394515
tp1439
(lp1440
I4735
aI11823
as(I557831
I4204049
tp1441
(lp1442
I4971
aI11952
as(I73730
I134224677
tp1443
(lp1444
I5961
aI11849
as(I295429
I541447
tp1445
(lp1446
I4697
aI12027
as(I266757
I270853
tp1447
(lp1448
I6429
aI11358
as(I164099
I557831
tp1449
(lp1450
I4886
aI12086
as(I266757
I529159
tp1451
(lp1452
I4993
aI12007
as(I135427
I557831
tp1453
(lp1454
I4308
aI11845
as(I134228773
I134253349
tp1455
(lp1456
I9318
aI11260
as(I16783383
I33564957
tp1457
(lp1458
I6439
aI11688
as(I139523
I1057803
tp1459
(lp1460
I4772
aI11909
as(I8394515
I33573149
tp1461
(lp1462
I6217
aI11697
as(I533255
I67144223
tp1463
(lp1464
I5901
aI11873
as(I8406803
I33573149
tp1465
(lp1466
I6476
aI11675
as(I81922
I4212241
tp1467
(lp1468
I4901
aI11921
as(I2131213
I134228773
tp1469
(lp1470
I6532
aI11832
as(I69634
I67119647
tp1471
(lp1472
I5596
aI11692
as(I98306
I8423187
tp1473
(lp1474
I5101
aI11825
as(I4199953
I67127839
tp1475
(lp1476
I6234
aI11673
as(I33560861
I33573149
tp1477
(lp1478
I8932
aI11482
as(I557831
I8406803
tp1479
(lp1480
I5268
aI11989
as(I8423187
I16787479
tp1481
(lp1482
I6003
aI11729
as(I541447
I4228625
tp1483
(lp1484
I4870
aI11736
as(I73730
I268454953
tp1485
(lp1486
I6392
aI11654
as(I139523
I4204049
tp1487
(lp1488
I4944
aI11886
as(I4204049
I4228625
tp1489
(lp1490
I7816
aI11355
as(I8423187
I67115551
tp1491
(lp1492
I6385
aI11709
as(I98306
I1082379
tp1493
(lp1494
I4678
aI12283
as(I4212241
I8406803
tp1495
(lp1496
I5991
aI11686
as(I98306
I2131213
tp1497
(lp1498
I4689
aI12014
as(I33573149
I134236965
tp1499
(lp1500
I7223
aI11525
as(I1065995
I33564957
tp1501
(lp1502
I5673
aI11864
as(I1057803
I8394515
tp1503
(lp1504
I5264
aI11794
as(I147715
I33560861
tp1505
(lp1506
I5376
aI11734
as(I16812055
I268442665
tp1507
(lp1508
I7304
aI11585
as(I16812055
I67144223
tp1509
(lp1510
I6839
aI11685
as(I2106637
I8398611
tp1511
(lp1512
I5751
aI11810
as(I529159
I33564957
tp1513
(lp1514
I5602
aI11829
as(I270853
I295429
tp1515
(lp1516
I6507
aI11403
as(I33589533
I134224677
tp1517
(lp1518
I7051
aI11543
as(I1057803
I4212241
tp1519
(lp1520
I5291
aI12043
as(I69634
I135427
tp1521
(lp1522
I4479
aI12078
as(I557831
I16787479
tp1523
(lp1524
I5179
aI11791
as(I16787479
I134228773
tp1525
(lp1526
I7177
aI11679
as(I4228625
I67144223
tp1527
(lp1528
I6556
aI11752
as(I33573149
I67119647
tp1529
(lp1530
I6825
aI11634
as(I279045
I16783383
tp1531
(lp1532
I5104
aI11784
as(I266757
I2106637
tp1533
(lp1534
I4810
aI11933
as(I1057803
I67127839
tp1535
(lp1536
I5850
aI11561
as(I73730
I268471337
tp1537
(lp1538
I6343
aI11700
as(I295429
I16787479
tp1539
(lp1540
I5204
aI11896
as(I541447
I2131213
tp1541
(lp1542
I4784
aI11732
as(I279045
I134236965
tp1543
(lp1544
I6351
aI11697
as(I73730
I16787479
tp1545
(lp1546
I5298
aI11745
as(I2106637
I33564957
tp1547
(lp1548
I6170
aI11675
as(I67127839
I134253349
tp1549
(lp1550
I7020
aI11532
as(I2102541
I268442665
tp1551
(lp1552
I7087
aI11675
as(I147715
I67119647
tp1553
(lp1554
I5806
aI11898
as(I266757
I1057803
tp1555
(lp1556
I4588
aI12043
as(I529159
I4199953
tp1557
(lp1558
I5434
aI12006
as(I8394515
I33560861
tp1559
(lp1560
I6434
aI11620
as(I266757
I33564957
tp1561
(lp1562
I5380
aI11719
as(I164099
I16812055
tp1563
(lp1564
I5363
aI11720
as(I2106637
I2114829
tp1565
(lp1566
I7438
aI11261
as(I266757
I33560861
tp1567
(lp1568
I5831
aI11831
as(I279045
I33560861
tp1569
(lp1570
I5364
aI11857
as(I270853
I8423187
tp1571
(lp1572
I4936
aI11972
as(I541447
I1057803
tp1573
(lp1574
I4860
aI11962
as(I69634
I533255
tp1575
(lp1576
I4200
aI12084
as(I135427
I266757
tp1577
(lp1578
I4704
aI11918
as(I4199953
I33573149
tp1579
(lp1580
I6063
aI11608
as(I73730
I33589533
tp1581
(lp1582
I5143
aI11681
as(I8423187
I67144223
tp1583
(lp1584
I6704
aI11674
as(I69634
I16795671
tp1585
(lp1586
I5023
aI11963
as(I266757
I8398611
tp1587
(lp1588
I4829
aI11704
as(I2106637
I33573149
tp1589
(lp1590
I5859
aI11913
as(I134224677
I268442665
tp1591
(lp1592
I7607
aI11358
as(I1082379
I67144223
tp1593
(lp1594
I6206
aI11773
as(I1082379
I16787479
tp1595
(lp1596
I5486
aI11793
as(I67115551
I134228773
tp1597
(lp1598
I7212
aI11646
as(I529159
I134224677
tp1599
(lp1600
I6544
aI11627
as(I147715
I268442665
tp1601
(lp1602
I6582
aI11754
as(I67144223
I268471337
tp1603
(lp1604
I7663
aI11622
as(I4204049
I134236965
tp1605
(lp1606
I6497
aI11724
as(I270853
I16787479
tp1607
(lp1608
I5399
aI11699
as(I2131213
I16812055
tp1609
(lp1610
I5963
aI11690
as(I4228625
I8406803
tp1611
(lp1612
I5657
aI11886
as(I1065995
I134228773
tp1613
(lp1614
I6315
aI11541
as(I147715
I1065995
tp1615
(lp1616
I4945
aI12139
as(I4212241
I268454953
tp1617
(lp1618
I7257
aI11778
as(I16787479
I67127839
tp1619
(lp1620
I6532
aI11435
as(I1065995
I268446761
tp1621
(lp1622
I6872
aI11886
as(I2114829
I134253349
tp1623
(lp1624
I6336
aI11621
as(I279045
I4212241
tp1625
(lp1626
I5091
aI11928
as(I270853
I541447
tp1627
(lp1628
I4604
aI11766
as(I279045
I16795671
tp1629
(lp1630
I5547
aI11977
as(I529159
I16795671
tp1631
(lp1632
I5257
aI11880
as(I541447
I2102541
tp1633
(lp1634
I4768
aI11810
as(I1053707
I33560861
tp1635
(lp1636
I5891
aI11704
as(I69634
I8398611
tp1637
(lp1638
I4715
aI11983
as(I557831
I33564957
tp1639
(lp1640
I5586
aI11861
as(I134228773
I134236965
tp1641
(lp1642
I9316
aI11355
as(I295429
I67115551
tp1643
(lp1644
I5871
aI11833
as(I98306
I8398611
tp1645
(lp1646
I4718
aI11932
as(I2131213
I67127839
tp1647
(lp1648
I6163
aI11912
as(I2102541
I16795671
tp1649
(lp1650
I5613
aI11753
as(I164099
I533255
tp1651
(lp1652
I4393
aI11977
as(I533255
I134228773
tp1653
(lp1654
I6484
aI11657
as(I16812055
I33589533
tp1655
(lp1656
I6705
aI11669
as(I1065995
I16783383
tp1657
(lp1658
I5377
aI11723
as(I135427
I1065995
tp1659
(lp1660
I4424
aI12083
as(I8423187
I33564957
tp1661
(lp1662
I6103
aI11562
as(I295429
I4199953
tp1663
(lp1664
I4728
aI11838
as(I16812055
I134228773
tp1665
(lp1666
I6934
aI11700
as(I81922
I8406803
tp1667
(lp1668
I5077
aI11953
as(I2106637
I16812055
tp1669
(lp1670
I5734
aI11919
as(I268446761
I268454953
tp1671
(lp1672
I9653
aI11301
as(I73730
I8394515
tp1673
(lp1674
I4737
aI11887
as(I4204049
I67144223
tp1675
(lp1676
I6293
aI11739
as(I33564957
I33589533
tp1677
(lp1678
I8629
aI11135
as(I8406803
I268442665
tp1679
(lp1680
I7109
aI11720
as(I33573149
I268446761
tp1681
(lp1682
I7395
aI11577
as(I557831
I2114829
tp1683
(lp1684
I4977
aI11976
as(I98306
I268442665
tp1685
(lp1686
I6452
aI11821
as(I135427
I4212241
tp1687
(lp1688
I4611
aI11926
as(I73730
I1053707
tp1689
(lp1690
I4256
aI12100
as(I69634
I2131213
tp1691
(lp1692
I4357
aI12089
as(I541447
I1082379
tp1693
(lp1694
I4789
aI11970
as(I2106637
I33560861
tp1695
(lp1696
I5860
aI11696
as(I557831
I33589533
tp1697
(lp1698
I5759
aI11846
as(I16795671
I268471337
tp1699
(lp1700
I7273
aI11696
as(I2114829
I4199953
tp1701
(lp1702
I5384
aI11845
as(I266757
I33573149
tp1703
(lp1704
I5554
aI11938
as(I1053707
I8398611
tp1705
(lp1706
I5392
aI11921
as(I4228625
I268471337
tp1707
(lp1708
I7283
aI11650
as(I33564957
I134253349
tp1709
(lp1710
I6985
aI11633
as(I1065995
I4204049
tp1711
(lp1712
I5183
aI11977
as(I8398611
I134236965
tp1713
(lp1714
I6720
aI11634
as(I73730
I33573149
tp1715
(lp1716
I5286
aI11796
as(I2102541
I8394515
tp1717
(lp1718
I5653
aI11664
as(I139523
I147715
tp1719
(lp1720
I6288
aI11635
as(I139523
I2102541
tp1721
(lp1722
I4612
aI12201
as(I81922
I1082379
tp1723
(lp1724
I4120
aI11942
as(I2114829
I268446761
tp1725
(lp1726
I6769
aI11528
as(I135427
I67144223
tp1727
(lp1728
I5597
aI11769
as(I295429
I4228625
tp1729
(lp1730
I5108
aI11861
as(I2102541
I33573149
tp1731
(lp1732
I5774
aI11642
as(I270853
I1065995
tp1733
(lp1734
I4534
aI11976
as(I529159
I33560861
tp1735
(lp1736
I5847
aI11616
as(I135427
I139523
tp1737
(lp1738
I6185
aI11611
as(I533255
I268454953
tp1739
(lp1740
I6708
aI11737
as(I541447
I67127839
tp1741
(lp1742
I6198
aI11694
as(I279045
I1053707
tp1743
(lp1744
I4687
aI12071
as(I295429
I33589533
tp1745
(lp1746
I5789
aI11740
as(I135427
I16812055
tp1747
(lp1748
I5045
aI12014
as(I533255
I1082379
tp1749
(lp1750
I4915
aI11933
as(I8398611
I134228773
tp1751
(lp1752
I6890
aI11608
as(I81922
I279045
tp1753
(lp1754
I4421
aI11903
as(I295429
I2114829
tp1755
(lp1756
I4692
aI11890
as(I529159
I1057803
tp1757
(lp1758
I5023
aI12193
as(I139523
I67119647
tp1759
(lp1760
I6012
aI11798
as(I147715
I266757
tp1761
(lp1762
I4232
aI11823
as(I67144223
I268442665
tp1763
(lp1764
I7303
aI11419
as(I69634
I134236965
tp1765
(lp1766
I6042
aI11854
as(I1053707
I4204049
tp1767
(lp1768
I5247
aI11858
as(I295429
I529159
tp1769
(lp1770
I4730
aI12143
as(I73730
I16812055
tp1771
(lp1772
I5007
aI11820
as(I16812055
I134224677
tp1773
(lp1774
I6909
aI11651
as(I529159
I134228773
tp1775
(lp1776
I6289
aI11905
as(I1082379
I268471337
tp1777
(lp1778
I6990
aI11673
as(I67115551
I67144223
tp1779
(lp1780
I8983
aI11300
as(I1065995
I16787479
tp1781
(lp1782
I5530
aI11850
as(I2114829
I67119647
tp1783
(lp1784
I6222
aI11906
as(I270853
I268442665
tp1785
(lp1786
I6580
aI11722
as(I266757
I134253349
tp1787
(lp1788
I6150
aI11884
as(I533255
I1053707
tp1789
(lp1790
I4769
aI11946
as(I4228625
I134224677
tp1791
(lp1792
I6522
aI11678
as(I1082379
I16795671
tp1793
(lp1794
I5575
aI12023
as(I2102541
I16812055
tp1795
(lp1796
I5592
aI11632
as(I69634
I270853
tp1797
(lp1798
I4076
aI11972
as(I81922
I268471337
tp1799
(lp1800
I6506
aI11891
as(I69634
I2102541
tp1801
(lp1802
I4656
aI11994
as(I4212241
I33564957
tp1803
(lp1804
I5950
aI11669
as(I33589533
I268442665
tp1805
(lp1806
I7373
aI11525
as(I4199953
I4228625
tp1807
(lp1808
I7960
aI11490
as(I139523
I8406803
tp1809
(lp1810
I4869
aI11864
as(I4204049
I8394515
tp1811
(lp1812
I5694
aI11820
as(I16783383
I16795671
tp1813
(lp1814
I8630
aI11484
as(I266757
I134224677
tp1815
(lp1816
I6517
aI11916
as(I4199953
I67115551
tp1817
(lp1818
I6502
aI11586
as(I81922
I134228773
tp1819
(lp1820
I5904
aI11711
as(I1053707
I2106637
tp1821
(lp1822
I5141
aI12011
as(I69634
I529159
tp1823
(lp1824
I4543
aI11825
as(I4228625
I134228773
tp1825
(lp1826
I6566
aI11787
as(I1065995
I4228625
tp1827
(lp1828
I5174
aI12054
as(I8398611
I33573149
tp1829
(lp1830
I6308
aI11796
as(I1065995
I33589533
tp1831
(lp1832
I5594
aI11680
as(I16787479
I33560861
tp1833
(lp1834
I6586
aI11818
as(I139523
I1082379
tp1835
(lp1836
I4523
aI12066
as(I8394515
I33564957
tp1837
(lp1838
I6188
aI11800
as(I279045
I4228625
tp1839
(lp1840
I4703
aI11870
as(I164099
I268471337
tp1841
(lp1842
I6835
aI11745
as(I98306
I4204049
tp1843
(lp1844
I4354
aI11817
as(I16787479
I16795671
tp1845
(lp1846
I8433
aI11343
as(I8394515
I16783383
tp1847
(lp1848
I6264
aI11701
as(I4204049
I4212241
tp1849
(lp1850
I7870
aI11377
as(I139523
I33589533
tp1851
(lp1852
I5415
aI11860
as(I4212241
I67115551
tp1853
(lp1854
I6179
aI11618
as(I98306
I295429
tp1855
(lp1856
I4463
aI11981
as(I266757
I2102541
tp1857
(lp1858
I5073
aI11845
as(I541447
I8398611
tp1859
(lp1860
I5120
aI11876
as(I541447
I8423187
tp1861
(lp1862
I5007
aI11758
as(I541447
I4204049
tp1863
(lp1864
I4989
aI11949
as(I279045
I1082379
tp1865
(lp1866
I4699
aI12111
as(I98306
I147715
tp1867
(lp1868
I3907
aI11891
as(I98306
I268454953
tp1869
(lp1870
I6383
aI11784
as(I135427
I4199953
tp1871
(lp1872
I4980
aI11934
as(I98306
I533255
tp1873
(lp1874
I4240
aI11990
as(I1082379
I2102541
tp1875
(lp1876
I5097
aI11961
as(I1057803
I2131213
tp1877
(lp1878
I5166
aI12018
as(I557831
I268442665
tp1879
(lp1880
I6665
aI11715
as(I529159
I67115551
tp1881
(lp1882
I6102
aI11594
as(I134236965
I134253349
tp1883
(lp1884
I9339
aI11361
as(I279045
I557831
tp1885
(lp1886
I4758
aI12095
as(I1065995
I1082379
tp1887
(lp1888
I7151
aI11407
as(I1053707
I8423187
tp1889
(lp1890
I5354
aI11960
as(I135427
I4228625
tp1891
(lp1892
I4491
aI11865
as(I81922
I270853
tp1893
(lp1894
I4123
aI12133
as(I147715
I164099
tp1895
(lp1896
I6097
aI11378
as(I2106637
I8394515
tp1897
(lp1898
I5406
aI11907
as(I4199953
I134224677
tp1899
(lp1900
I6700
aI11649
as(I67127839
I134236965
tp1901
(lp1902
I7325
aI11671
as(I270853
I2114829
tp1903
(lp1904
I4741
aI12045
as(I8398611
I16783383
tp1905
(lp1906
I6113
aI11713
as(I98306
I279045
tp1907
(lp1908
I3976
aI11840
as(I8398611
I134224677
tp1909
(lp1910
I6660
aI11659
as(I533255
I16787479
tp1911
(lp1912
I5694
aI11972
as(I98306
I33560861
tp1913
(lp1914
I5332
aI11955
as(I16783383
I134224677
tp1915
(lp1916
I7094
aI11514
as(I33573149
I67127839
tp1917
(lp1918
I7041
aI11615
as(I164099
I2106637
tp1919
(lp1920
I4556
aI11996
as(I533255
I541447
tp1921
(lp1922
I6913
aI11556
as(I139523
I541447
tp1923
(lp1924
I4365
aI11962
as(I1082379
I134224677
tp1925
(lp1926
I6366
aI11835
as(I33564957
I268454953
tp1927
(lp1928
I7349
aI11614
as(I295429
I1082379
tp1929
(lp1930
I4933
aI11803
as(I529159
I8394515
tp1931
(lp1932
I5480
aI11871
as(I98306
I139523
tp1933
(lp1934
I4116
aI12155
as(I2106637
I33589533
tp1935
(lp1936
I5852
aI11815
as(I295429
I268442665
tp1937
(lp1938
I6569
aI11505
as(I98306
I8406803
tp1939
(lp1940
I4815
aI12054
as(I279045
I295429
tp1941
(lp1942
I6496
aI11325
as(I164099
I270853
tp1943
(lp1944
I4447
aI11988
as(I266757
I1082379
tp1945
(lp1946
I4650
aI11943
as(I73730
I33560861
tp1947
(lp1948
I5264
aI11787
as(I4212241
I268442665
tp1949
(lp1950
I6907
aI11641
as(I98306
I134224677
tp1951
(lp1952
I5916
aI11737
as(I164099
I16787479
tp1953
(lp1954
I5096
aI11909
as(I533255
I33573149
tp1955
(lp1956
I5591
aI11876
as(I2114829
I2131213
tp1957
(lp1958
I7403
aI11143
as(I147715
I67127839
tp1959
(lp1960
I5945
aI11787
as(I69634
I295429
tp1961
(lp1962
I4081
aI12200
as(I134224677
I268454953
tp1963
(lp1964
I7525
aI11559
as(I16787479
I67144223
tp1965
(lp1966
I6534
aI11568
as(I73730
I529159
tp1967
(lp1968
I4135
aI11915
as(I67144223
I268454953
tp1969
(lp1970
I7495
aI11703
as(I2114829
I4204049
tp1971
(lp1972
I5314
aI11808
as(I81922
I16783383
tp1973
(lp1974
I4968
aI11709
as(I266757
I8423187
tp1975
(lp1976
I4855
aI11747
as(I4199953
I268442665
tp1977
(lp1978
I7154
aI11628
as(I67119647
I67127839
tp1979
(lp1980
I9096
aI11435
as(I1065995
I16795671
tp1981
(lp1982
I5671
aI11583
as(I8394515
I67144223
tp1983
(lp1984
I6499
aI11773
as(I557831
I16812055
tp1985
(lp1986
I5609
aI11783
as(I4199953
I268454953
tp1987
(lp1988
I7001
aI11731
as(I8406803
I67119647
tp1989
(lp1990
I6483
aI11780
as(I295429
I16783383
tp1991
(lp1992
I5142
aI11760
as(I1053707
I2102541
tp1993
(lp1994
I5493
aI11939
as(I2106637
I8406803
tp1995
(lp1996
I5533
aI11957
as(I1057803
I1082379
tp1997
(lp1998
I7191
aI11494
as(I81922
I135427
tp1999
(lp2000
I4011
aI12093
as(I2106637
I134228773
tp2001
(lp2002
I6712
aI11902
as(I4199953
I33564957
tp2003
(lp2004
I6032
aI11745
as(I1082379
I268454953
tp2005
(lp2006
I6750
aI11760
as(I98306
I164099
tp2007
(lp2008
I4388
aI11814
as(I557831
I134253349
tp2009
(lp2010
I6488
aI11681
as(I4228625
I8398611
tp2011
(lp2012
I5732
aI11883
as(I279045
I134224677
tp2013
(lp2014
I6176
aI11823
as(I69634
I73730
tp2015
(lp2016
I5868
aI11605
as(I98306
I67144223
tp2017
(lp2018
I5915
aI11675
as(I8423187
I134253349
tp2019
(lp2020
I6990
aI11697
as(I69634
I2114829
tp2021
(lp2022
I4290
aI11995
as(I164099
I8398611
tp2023
(lp2024
I4816
aI11894
as(I16787479
I268454953
tp2025
(lp2026
I7267
aI11595
as(I2114829
I268442665
tp2027
(lp2028
I6771
aI11643
as(I81922
I33589533
tp2029
(lp2030
I5219
aI11763
as(I529159
I1082379
tp2031
(lp2032
I4908
aI12040
as(I139523
I533255
tp2033
(lp2034
I4709
aI11887
as(I533255
I134253349
tp2035
(lp2036
I6280
aI11782
as(I16787479
I33573149
tp2037
(lp2038
I6368
aI11619
as(I147715
I1053707
tp2039
(lp2040
I4439
aI12018
as(I8423187
I33589533
tp2041
(lp2042
I6465
aI11652
as(I266757
I4212241
tp2043
(lp2044
I4770
aI11934
as(I8406803
I268454953
tp2045
(lp2046
I7160
aI11492
as(I8394515
I8406803
tp2047
(lp2048
I8431
aI11659
as(I81922
I8423187
tp2049
(lp2050
I4759
aI11965
as(I2106637
I4199953
tp2051
(lp2052
I5427
aI11790
as(I1053707
I33573149
tp2053
(lp2054
I5631
aI11663
as(I67119647
I268442665
tp2055
(lp2056
I7504
aI11759
as(I67115551
I134224677
tp2057
(lp2058
I7396
aI11733
as(I529159
I8398611
tp2059
(lp2060
I5095
aI11929
as(I268454953
I268471337
tp2061
(lp2062
I9626
aI11317
as(I529159
I4204049
tp2063
(lp2064
I4882
aI11916
as(I541447
I33589533
tp2065
(lp2066
I5679
aI11830
as(I4228625
I16783383
tp2067
(lp2068
I5822
aI11701
as(I33560861
I268471337
tp2069
(lp2070
I7282
aI11486
as(I147715
I1082379
tp2071
(lp2072
I4541
aI12107
as(I270853
I2131213
tp2073
(lp2074
I4831
aI12205
as(I266757
I4199953
tp2075
(lp2076
I5187
aI11916
as(I541447
I268471337
tp2077
(lp2078
I6699
aI11725
as(I4204049
I268446761
tp2079
(lp2080
I7196
aI11585
as(I134224677
I134236965
tp2081
(lp2082
I9384
aI11453
as(I4199953
I67119647
tp2083
(lp2084
I6086
aI11485
as(I541447
I67115551
tp2085
(lp2086
I5971
aI11923
as(I139523
I33573149
tp2087
(lp2088
I5277
aI11579
as(I16795671
I268446761
tp2089
(lp2090
I7214
aI11604
as(I81922
I1065995
tp2091
(lp2092
I4663
aI12056
as(I557831
I268471337
tp2093
(lp2094
I7114
aI11907
as(I134228773
I268454953
tp2095
(lp2096
I7610
aI11783
as(I67115551
I134253349
tp2097
(lp2098
I7046
aI11447
as(I16787479
I67115551
tp2099
(lp2100
I6590
aI11464
as(I279045
I268471337
tp2101
(lp2102
I6668
aI11655
as(I295429
I8406803
tp2103
(lp2104
I4929
aI12041
as(I8394515
I134224677
tp2105
(lp2106
I7020
aI11691
as(I81922
I557831
tp2107
(lp2108
I4230
aI11975
as(I270853
I529159
tp2109
(lp2110
I4620
aI11954
as(I2131213
I134236965
tp2111
(lp2112
I6381
aI11658
as(I33573149
I67115551
tp2113
(lp2114
I6653
aI11418
as(I16783383
I134236965
tp2115
(lp2116
I6804
aI11565
as(I4204049
I67115551
tp2117
(lp2118
I6412
aI11871
as(I270853
I268454953
tp2119
(lp2120
I6598
aI11683
as(I2102541
I8406803
tp2121
(lp2122
I5532
aI11945
as(I1082379
I33589533
tp2123
(lp2124
I6075
aI11996
as(I67127839
I268471337
tp2125
(lp2126
I7252
aI11492
as(I134236965
I268442665
tp2127
(lp2128
I7414
aI11372
as(I1057803
I67119647
tp2129
(lp2130
I6426
aI11904
as(I270853
I16783383
tp2131
(lp2132
I5275
aI11760
as(I98306
I134253349
tp2133
(lp2134
I6278
aI11844
as(I2114829
I8398611
tp2135
(lp2136
I5248
aI11630
as(I557831
I1065995
tp2137
(lp2138
I4877
aI11902
as(I2106637
I4204049
tp2139
(lp2140
I5624
aI11869
as(I147715
I2102541
tp2141
(lp2142
I4440
aI11896
as(I270853
I2106637
tp2143
(lp2144
I5103
aI12023
as(I98306
I134236965
tp2145
(lp2146
I5919
aI11733
as(I1065995
I268471337
tp2147
(lp2148
I6601
aI11581
as(I73730
I67127839
tp2149
(lp2150
I5575
aI11690
as(I98306
I270853
tp2151
(lp2152
I4055
aI11985
as(I139523
I268471337
tp2153
(lp2154
I6462
aI11704
as(I16795671
I67115551
tp2155
(lp2156
I6538
aI11528
as(I135427
I67115551
tp2157
(lp2158
I6120
aI11777
as(I81922
I98306
tp2159
(lp2160
I5819
aI11536
as(I16795671
I67144223
tp2161
(lp2162
I6664
aI11570
as(I295429
I16812055
tp2163
(lp2164
I5507
aI11943
as(I1082379
I33564957
tp2165
(lp2166
I5715
aI11987
as(I270853
I8406803
tp2167
(lp2168
I4809
aI11770
as(I69634
I134224677
tp2169
(lp2170
I6243
aI11774
as(I2114829
I8406803
tp2171
(lp2172
I5802
aI11766
as(I8406803
I134228773
tp2173
(lp2174
I6607
aI11500
as(I1053707
I16812055
tp2175
(lp2176
I5450
aI11708
as(I73730
I67119647
tp2177
(lp2178
I5866
aI11802
as(I4199953
I8394515
tp2179
(lp2180
I5916
aI11801
as(I1053707
I67144223
tp2181
(lp2182
I5922
aI11648
as(I270853
I4204049
tp2183
(lp2184
I5211
aI11982
as(I1082379
I134253349
tp2185
(lp2186
I6732
aI11903
as(I1065995
I2102541
tp2187
(lp2188
I5014
aI11796
as(I2102541
I16787479
tp2189
(lp2190
I5624
aI11673
as(I1053707
I134236965
tp2191
(lp2192
I6314
aI11658
as(I16783383
I33589533
tp2193
(lp2194
I6547
aI11771
as(I266757
I2114829
tp2195
(lp2196
I4713
aI11976
as(I81922
I2114829
tp2197
(lp2198
I4563
aI11858
as(I1053707
I268454953
tp2199
(lp2200
I6721
aI11807
as(I2114829
I16795671
tp2201
(lp2202
I5913
aI11712
as(I81922
I2106637
tp2203
(lp2204
I4310
aI12184
as(I81922
I1053707
tp2205
(lp2206
I4228
aI11829
as(I533255
I2114829
tp2207
(lp2208
I4913
aI11924
as(I81922
I4228625
tp2209
(lp2210
I4456
aI11694
as(I2131213
I16787479
tp2211
(lp2212
I5668
aI11723
as(I16787479
I268471337
tp2213
(lp2214
I7266
aI11673
as(I279045
I67119647
tp2215
(lp2216
I5817
aI11752
as(I2106637
I67144223
tp2217
(lp2218
I6058
aI11762
as(I135427
I541447
tp2219
(lp2220
I4445
aI11940
as(I541447
I134224677
tp2221
(lp2222
I6308
aI11788
as(I2131213
I268446761
tp2223
(lp2224
I6725
aI11671
as(I8406803
I33560861
tp2225
(lp2226
I6210
aI11602
as(I533255
I67127839
tp2227
(lp2228
I5861
aI11689
as(I73730
I4204049
tp2229
(lp2230
I4863
aI11941
as(I69634
I98306
tp2231
(lp2232
I5864
aI11518
as(I16812055
I33564957
tp2233
(lp2234
I6432
aI11643
as(I73730
I8398611
tp2235
(lp2236
I5128
aI11877
as(I1082379
I8406803
tp2237
(lp2238
I5275
aI11849
as(I164099
I4212241
tp2239
(lp2240
I4542
aI11876
as(I541447
I8406803
tp2241
(lp2242
I5393
aI11685
as(I67127839
I134224677
tp2243
(lp2244
I7082
aI11635
as(I541447
I4212241
tp2245
(lp2246
I5354
aI11839
as(I4212241
I16812055
tp2247
(lp2248
I5817
aI11790
as(I4228625
I268446761
tp2249
(lp2250
I6944
aI11567
as(I533255
I8394515
tp2251
(lp2252
I4991
aI11682
as(I279045
I2102541
tp2253
(lp2254
I4582
aI11861
as(I2114829
I33589533
tp2255
(lp2256
I5977
aI11731
as(I1057803
I4228625
tp2257
(lp2258
I5153
aI11699
as(I73730
I1057803
tp2259
(lp2260
I4388
aI11778
as(I270853
I16795671
tp2261
(lp2262
I5174
aI11766
as(I73730
I2106637
tp2263
(lp2264
I4591
aI11899
as(I139523
I134224677
tp2265
(lp2266
I6055
aI11808
as(I1082379
I33573149
tp2267
(lp2268
I5757
aI11886
as(I69634
I147715
tp2269
(lp2270
I3985
aI11885
as(I164099
I33560861
tp2271
(lp2272
I5490
aI11916
as(I139523
I8394515
tp2273
(lp2274
I4802
aI11889
as(I533255
I33560861
tp2275
(lp2276
I5655
aI11864
as(I8423187
I268471337
tp2277
(lp2278
I7081
aI11424
as(I529159
I134236965
tp2279
(lp2280
I6215
aI11746
as(I8406803
I16787479
tp2281
(lp2282
I5996
aI11736
as(I4228625
I134236965
tp2283
(lp2284
I6457
aI11525
as(I2131213
I4228625
tp2285
(lp2286
I5641
aI11758
as(I295429
I134236965
tp2287
(lp2288
I6165
aI11892
as(I8406803
I268471337
tp2289
(lp2290
I6872
aI11298
as(I33589533
I67119647
tp2291
(lp2292
I6792
aI11771
as(I139523
I2106637
tp2293
(lp2294
I4784
aI11759
as(I270853
I67119647
tp2295
(lp2296
I6073
aI11645
as(I541447
I557831
tp2297
(lp2298
I6811
aI11316
as(I1057803
I67144223
tp2299
(lp2300
I6125
aI11796
as(I8423187
I16812055
tp2301
(lp2302
I6261
aI11683
as(I33589533
I268454953
tp2303
(lp2304
I7251
aI11517
as(I541447
I16783383
tp2305
(lp2306
I5200
aI11671
as(I1065995
I33573149
tp2307
(lp2308
I5982
aI11791
as(I270853
I33573149
tp2309
(lp2310
I5500
aI11761
as(I2102541
I2114829
tp2311
(lp2312
I7605
aI11493
as(I1053707
I67119647
tp2313
(lp2314
I5915
aI11603
as(I279045
I4204049
tp2315
(lp2316
I4654
aI11806
as(I33589533
I268471337
tp2317
(lp2318
I7537
aI11556
as(I81922
I2102541
tp2319
(lp2320
I4244
aI11958
as(I8423187
I134236965
tp2321
(lp2322
I6692
aI11636
as(I2131213
I33560861
tp2323
(lp2324
I5863
aI11800
as(I139523
I8398611
tp2325
(lp2326
I5239
aI11855
as(I164099
I16795671
tp2327
(lp2328
I5091
aI11724
as(I541447
I33564957
tp2329
(lp2330
I5618
aI11851
as(I533255
I2131213
tp2331
(lp2332
I4949
aI11871
as(I135427
I268442665
tp2333
(lp2334
I6763
aI11620
as(I147715
I134253349
tp2335
(lp2336
I5960
aI11761
as(I164099
I8423187
tp2337
(lp2338
I5175
aI11790
as(I1057803
I16812055
tp2339
(lp2340
I5462
aI11853
as(I147715
I8423187
tp2341
(lp2342
I4889
aI11941
as(I1057803
I33560861
tp2343
(lp2344
I5603
aI11745
as(I139523
I279045
tp2345
(lp2346
I4364
aI11987
as(I67144223
I268446761
tp2347
(lp2348
I7415
aI11578
as(I1057803
I268471337
tp2349
(lp2350
I6701
aI11642
as(I33589533
I67144223
tp2351
(lp2352
I6865
aI11522
as(I16795671
I134228773
tp2353
(lp2354
I6864
aI11581
as(I134224677
I134253349
tp2355
(lp2356
I9378
aI11316
as(I2114829
I8394515
tp2357
(lp2358
I5588
aI11925
as(I557831
I2102541
tp2359
(lp2360
I5013
aI12119
as(I1057803
I16795671
tp2361
(lp2362
I5335
aI11602
as(I1082379
I134236965
tp2363
(lp2364
I6226
aI11626
as(I2114829
I67115551
tp2365
(lp2366
I6066
aI11767
as(I1057803
I4204049
tp2367
(lp2368
I5578
aI12135
as(I1053707
I134224677
tp2369
(lp2370
I6519
aI11718
as(I295429
I268471337
tp2371
(lp2372
I6901
aI11710
as(I16787479
I16812055
tp2373
(lp2374
I8592
aI11453
as(I4212241
I134228773
tp2375
(lp2376
I6452
aI11717
as(I81922
I67144223
tp2377
(lp2378
I5651
aI11863
as(I81922
I268446761
tp2379
(lp2380
I6601
aI12076
as(I8394515
I134228773
tp2381
(lp2382
I6803
aI11849
as(I33564957
I268471337
tp2383
(lp2384
I7466
aI11740
as(I135427
I1082379
tp2385
(lp2386
I4292
aI11714
as(I4199953
I33589533
tp2387
(lp2388
I6020
aI11792
as(I557831
I4228625
tp2389
(lp2390
I5335
aI11877
as(I2131213
I134253349
tp2391
(lp2392
I6665
aI11793
as(I2102541
I268454953
tp2393
(lp2394
I6912
aI11779
as(I4204049
I8398611
tp2395
(lp2396
I5919
aI11680
as(I8394515
I268446761
tp2397
(lp2398
I6976
aI11690
as(I279045
I16812055
tp2399
(lp2400
I5181
aI11878
as(I81922
I33560861
tp2401
(lp2402
I5341
aI11879
as(I8406803
I16795671
tp2403
(lp2404
I6288
aI11686
as(I279045
I8423187
tp2405
(lp2406
I4958
aI12139
as(I266757
I533255
tp2407
(lp2408
I4505
aI11860
as(I2102541
I268446761
tp2409
(lp2410
I6840
aI11696
as(I529159
I268446761
tp2411
(lp2412
I6725
aI11723
as(I541447
I67119647
tp2413
(lp2414
I5909
aI11686
as(I33560861
I134236965
tp2415
(lp2416
I7049
aI11717
as(I135427
I529159
tp2417
(lp2418
I4742
aI12040
as(I16787479
I33564957
tp2419
(lp2420
I6681
aI11670
as(I2114829
I134224677
tp2421
(lp2422
I6592
aI11891
as(I266757
I4204049
tp2423
(lp2424
I4662
aI11861
as(I67119647
I268454953
tp2425
(lp2426
I7401
aI11579
as(I69634
I4212241
tp2427
(lp2428
I4367
aI11714
as(I4199953
I134236965
tp2429
(lp2430
I6450
aI11612
as(I69634
I8406803
tp2431
(lp2432
I4698
aI11861
as(I73730
I4199953
tp2433
(lp2434
I4448
aI11909
as(I4204049
I67127839
tp2435
(lp2436
I6205
aI11619
as(I529159
I268442665
tp2437
(lp2438
I7011
aI11757
as(I33560861
I134224677
tp2439
(lp2440
I7088
aI11445
as(I529159
I8423187
tp2441
(lp2442
I5120
aI11908
as(I1082379
I268446761
tp2443
(lp2444
I6701
aI11576
as(I139523
I295429
tp2445
(lp2446
I4377
aI12069
as(I2106637
I268454953
tp2447
(lp2448
I6954
aI11799
as(I69634
I268446761
tp2449
(lp2450
I6410
aI11731
as(I139523
I134228773
tp2451
(lp2452
I6360
aI11843
as(I279045
I2114829
tp2453
(lp2454
I5088
aI12025
as(I533255
I268446761
tp2455
(lp2456
I6965
aI11691
as(I69634
I1065995
tp2457
(lp2458
I4297
aI12224
as(I4228625
I8423187
tp2459
(lp2460
I6073
aI11782
as(I1057803
I33589533
tp2461
(lp2462
I5636
aI11699
as(I279045
I134253349
tp2463
(lp2464
I6074
aI11703
as(I147715
I33589533
tp2465
(lp2466
I5330
aI11784
as(I16812055
I268471337
tp2467
(lp2468
I7488
aI11512
as(I4212241
I33560861
tp2469
(lp2470
I6013
aI11637
as(I1065995
I268454953
tp2471
(lp2472
I7056
aI11672
as(I67119647
I134236965
tp2473
(lp2474
I7034
aI11537
as(I1065995
I8394515
tp2475
(lp2476
I5183
aI11727
as(I557831
I67115551
tp2477
(lp2478
I5761
aI11582
as(I98306
I529159
tp2479
(lp2480
I4226
aI11860
as(I1065995
I4199953
tp2481
(lp2482
I5102
aI11706
as(I8423187
I134228773
tp2483
(lp2484
I6681
aI11606
as(I1057803
I16787479
tp2485
(lp2486
I5870
aI11879
as(I81922
I33564957
tp2487
(lp2488
I5338
aI11913
as(I134236965
I268471337
tp2489
(lp2490
I7496
aI11546
as(I81922
I134253349
tp2491
(lp2492
I5880
aI11777
as(I33560861
I67119647
tp2493
(lp2494
I6784
aI11684
as(I135427
I2114829
tp2495
(lp2496
I4507
aI12085
as(I1065995
I67115551
tp2497
(lp2498
I5974
aI11677
as(I529159
I2102541
tp2499
(lp2500
I5150
aI11911
as(I8406803
I134224677
tp2501
(lp2502
I6706
aI11601
as(I67115551
I67119647
tp2503
(lp2504
I9032
aI11256
as(I69634
I81922
tp2505
(lp2506
I5944
aI11693
as(I164099
I268446761
tp2507
(lp2508
I6504
aI11756
as(I270853
I1053707
tp2509
(lp2510
I4593
aI11985
as(I279045
I268446761
tp2511
(lp2512
I6572
aI11715
as(I4199953
I16783383
tp2513
(lp2514
I6030
aI11719
as(I1065995
I4212241
tp2515
(lp2516
I5525
aI11890
as(I139523
I33564957
tp2517
(lp2518
I5614
aI11651
as(I295429
I1065995
tp2519
(lp2520
I4567
aI11967
as(I134224677
I134228773
tp2521
(lp2522
I9485
aI11491
as(I147715
I67115551
tp2523
(lp2524
I5690
aI11799
as(I270853
I33564957
tp2525
(lp2526
I5786
aI11731
as(I135427
I16795671
tp2527
(lp2528
I5174
aI11861
as(I8398611
I67115551
tp2529
(lp2530
I6455
aI11593
as(I164099
I134228773
tp2531
(lp2532
I6090
aI11854
as(I73730
I270853
tp2533
(lp2534
I4446
aI11881
as(I557831
I67119647
tp2535
(lp2536
I5915
aI11695
as(I81922
I67115551
tp2537
(lp2538
I5485
aI11749
as(I135427
I268454953
tp2539
(lp2540
I6520
aI11746
as(I4199953
I16812055
tp2541
(lp2542
I5843
aI11808
as(I266757
I16812055
tp2543
(lp2544
I5356
aI12164
as(I270853
I8394515
tp2545
(lp2546
I4865
aI11877
as(I69634
I557831
tp2547
(lp2548
I4175
aI11907
as(I16795671
I16812055
tp2549
(lp2550
I8532
aI11404
as(I2131213
I4204049
tp2551
(lp2552
I5458
aI11910
as(I1053707
I33589533
tp2553
(lp2554
I5630
aI11883
as(I134224677
I268471337
tp2555
(lp2556
I7666
aI11636
as(I1053707
I16787479
tp2557
(lp2558
I5472
aI11850
as(I533255
I1065995
tp2559
(lp2560
I4801
aI11893
as(I2131213
I67119647
tp2561
(lp2562
I6107
aI11744
as(I4204049
I16795671
tp2563
(lp2564
I5758
aI11674
as(I266757
I8406803
tp2565
(lp2566
I4910
aI11954
as(I135427
I2102541
tp2567
(lp2568
I4819
aI11966
as(I81922
I67119647
tp2569
(lp2570
I5518
aI11719
as(I4199953
I134228773
tp2571
(lp2572
I6414
aI11419
as(I1082379
I8398611
tp2573
(lp2574
I5353
aI11785
as(I529159
I4212241
tp2575
(lp2576
I4934
aI11809
as(I295429
I268454953
tp2577
(lp2578
I6609
aI11627
as(I2102541
I4204049
tp2579
(lp2580
I5280
aI11774
as(I2106637
I4212241
tp2581
(lp2582
I5382
aI11835
as(I8423187
I33560861
tp2583
(lp2584
I6301
aI11779
as(I4199953
I4212241
tp2585
(lp2586
I7819
aI11451
as(I2102541
I134253349
tp2587
(lp2588
I6474
aI11639
as(I69634
I8423187
tp2589
(lp2590
I4679
aI12126
as(I4199953
I8406803
tp2591
(lp2592
I5810
aI11755
as(I266757
I16795671
tp2593
(lp2594
I5164
aI11641
as(I2102541
I33589533
tp2595
(lp2596
I5867
aI11742
as(I67144223
I134253349
tp2597
(lp2598
I7084
aI11336
as(I4199953
I67144223
tp2599
(lp2600
I6270
aI11729
as(I135427
I2131213
tp2601
(lp2602
I4440
aI12025
as(I139523
I16783383
tp2603
(lp2604
I5075
aI11813
as(I295429
I557831
tp2605
(lp2606
I5073
aI12018
as(I2106637
I268446761
tp2607
(lp2608
I7014
aI11703
as(I266757
I268454953
tp2609
(lp2610
I6772
aI11970
as(I4228625
I16795671
tp2611
(lp2612
I5943
aI11747
as(I147715
I529159
tp2613
(lp2614
I4523
aI12085
as(I2106637
I16787479
tp2615
(lp2616
I5870
aI11762
as(I139523
I1065995
tp2617
(lp2618
I4422
aI11832
as(I541447
I67144223
tp2619
(lp2620
I5959
aI11794
as(I73730
I4228625
tp2621
(lp2622
I4524
aI12052
as(I295429
I134224677
tp2623
(lp2624
I5937
aI11443
as(I73730
I8423187
tp2625
(lp2626
I4645
aI11678
as(I139523
I67144223
tp2627
(lp2628
I5679
aI11863
as(I4228625
I67115551
tp2629
(lp2630
I6297
aI11750
as(I4228625
I33589533
tp2631
(lp2632
I6354
aI11838
as(I69634
I1082379
tp2633
(lp2634
I4211
aI11923
as(I557831
I8398611
tp2635
(lp2636
I5157
aI11874
as(I8394515
I268471337
tp2637
(lp2638
I6915
aI11467
as(I557831
I4212241
tp2639
(lp2640
I5034
aI12001
as(I1065995
I33560861
tp2641
(lp2642
I5739
aI11951
as(I81922
I268454953
tp2643
(lp2644
I6868
aI11916
as(I533255
I4212241
tp2645
(lp2646
I4932
aI11848
as(I139523
I4212241
tp2647
(lp2648
I4600
aI11942
as(I16783383
I67119647
tp2649
(lp2650
I6546
aI11530
as(I1053707
I4199953
tp2651
(lp2652
I5392
aI11691
as.